Microchip MPLAB XC8 Compiler V1.45 ()

Linker command line:

-W-3 --edf=C:\Program Files (x86)\Microchip\xc8\v1.45\dat\en_msgs.txt -cs \
  -h+dist/default/production\udrive_code.production.sym \
  --cmf=dist/default/production\udrive_code.production.cmf -z -Q16F18346 \
  -oC:\Users\kolbi\AppData\Local\Temp\sau4.2 \
  -Mdist/default/production/udrive_code.production.map -E1 -ver=XC8 \
  -ASTACK=0217Ch-0278fh -pstack=STACK -ACODE=00h-07FFhx8 \
  -ASTRCODE=00h-03FFFh -ASTRING=00h-0FFhx64 -ACONST=00h-0FFhx64 \
  -AENTRY=00h-0FFhx64 -ACOMMON=070h-07Fh -ABANK0=020h-06Fh \
  -ABANK1=0A0h-0EFh -ABANK2=0120h-016Fh -ABANK3=01A0h-01EFh \
  -ABANK4=0220h-026Fh -ABANK5=02A0h-02EFh -ABANK6=0320h-036Fh \
  -ABANK7=03A0h-03EFh -ABANK8=0420h-046Fh -ABANK9=04A0h-04EFh \
  -ABANK10=0520h-056Fh -ABANK11=05A0h-05EFh -ABANK12=0620h-066Fh \
  -ABANK13=06A0h-06EFh -ABANK14=0720h-076Fh -ABANK15=07A0h-07EFh \
  -ABANK16=0820h-086Fh -ABANK17=08A0h-08EFh -ABANK18=0920h-096Fh \
  -ABANK19=09A0h-09EFh -ABANK20=0A20h-0A6Fh -ABANK21=0AA0h-0AEFh \
  -ABANK22=0B20h-0B6Fh -ABANK23=0BA0h-0BEFh -ABANK24=0C20h-0C6Fh \
  -ABANK25=0CA0h-0CBFh -ABIGRAM=02000h-027EFh \
  -ARAM=020h-06Fh,0A0h-0EFh,0120h-016Fh,01A0h-01EFh,0220h-026Fh,02A0h-02EFh,0320h-036Fh,03A0h-03EFh,0420h-046Fh,04A0h-04EFh,0520h-056Fh,05A0h-05EFh,0620h-066Fh,06A0h-06EFh,0720h-076Fh,07A0h-07EFh,0820h-086Fh,08A0h-08EFh,0920h-096Fh,09A0h-09EFh,0A20h-0A6Fh,0AA0h-0AEFh,0B20h-0B6Fh,0BA0h-0BEFh,0C20h-0C6Fh,0CA0h-0CBFh \
  -AABS1=020h-07Fh,0A0h-0EFh,0120h-016Fh,01A0h-01EFh,0220h-026Fh,02A0h-02EFh,0320h-036Fh,03A0h-03EFh,0420h-046Fh,04A0h-04EFh,0520h-056Fh,05A0h-05EFh,0620h-066Fh,06A0h-06EFh,0720h-076Fh,07A0h-07EFh,0820h-086Fh,08A0h-08EFh,0920h-096Fh,09A0h-09EFh,0A20h-0A6Fh,0AA0h-0AEFh,0B20h-0B6Fh,0BA0h-0BEFh,0C20h-0C6Fh,0CA0h-0CBFh \
  -ASFR0=00h-01Fh -ASFR1=080h-09Fh -ASFR2=0100h-011Fh -ASFR3=0180h-019Fh \
  -ASFR4=0200h-021Fh -ASFR5=0280h-029Fh -ASFR6=0300h-031Fh \
  -ASFR7=0380h-039Fh -ASFR8=0400h-041Fh -ASFR9=0480h-049Fh \
  -ASFR10=0500h-051Fh -ASFR11=0580h-059Fh -ASFR12=0600h-061Fh \
  -ASFR13=0680h-069Fh -ASFR14=0700h-071Fh -ASFR15=0780h-079Fh \
  -ASFR16=0800h-081Fh -ASFR17=0880h-089Fh -ASFR18=0900h-091Fh \
  -ASFR19=0980h-099Fh -ASFR20=0A00h-0A1Fh -ASFR21=0A80h-0A9Fh \
  -ASFR22=0B00h-0B1Fh -ASFR23=0B80h-0B9Fh -ASFR24=0C00h-0C1Fh \
  -ASFR25=0C80h-0C9Fh -ASFR26=0D00h-0D6Fh -ASFR27=0D80h-0DEFh \
  -ASFR28=0E00h-0E6Fh -ASFR29=0E80h-0EEFh -ASFR30=0F00h-0F6Fh \
  -ASFR31=0F80h-0FEFh -preset_vec=00h,intentry=04h,init,end_init \
  -ppowerup=CODE -pcinit=CODE -pfunctab=ENTRY -ACONFIG=08007h-0800Ah \
  -pconfig=CONFIG -DCONFIG=2 -AIDLOC=08000h-08003h -pidloc=IDLOC -DIDLOC=2 \
  -AEEDATA=00h-0FFh/0F000h -peeprom_data=EEDATA -DEEDATA=2 -DCODE=2 \
  -DSTRCODE=2 -DSTRING=2 -DCONST=2 -DENTRY=2 -k \
  C:\Users\kolbi\AppData\Local\Temp\sau4.obj \
  dist/default/production\udrive_code.production.obj 

Object code version is 3.11

Machine type is 16F18346



                Name                               Link     Load   Length Selector   Space Scale
C:\Users\kolbi\AppData\Local\Temp\sau4.obj
                end_init                             50       50        2        8       0
                reset_vec                             0        0        2        0       0
                idloc                              8000     8000        4    10000       0
                config                             8007     8007        4    1000E       0
dist/default/production\udrive_code.production.obj
                cinit                                52       52       6E        8       0
                intentry                              4        4       4C        8       0
                text164                            2566     2566       1C     4ACC       0
                text163                            25BB     25BB       1E     4B76       0
                text162                            2269     2269        3     44D2       0
                text161                            22D6     22D6        5     45AC       0
                text160                            27D7     27D7       29     4FAE       0
                text159                            1B17     1B17       49     362E       0
                text158                            24E7     24E7       18     49CE       0
                text157                            2675     2675       21     4CEA       0
                text156                             801      801       37     1002       0
                text155                            243A     243A        D     4874       0
                text154                            226C     226C        3     44D8       0
                text153                            22DB     22DB        5     45B6       0
                text152                            2376     2376        9     46EC       0
                text151                            2447     2447        D     488E       0
                text150                            226F     226F        3     44DE       0
                text149                            2272     2272        3     44E4       0
                text148                            22A2     22A2        4     4544       0
                text147                            2275     2275        3     44EA       0
                text146                            2278     2278        3     44F0       0
                text145                            2267     2267        2     44CE       0
                text144                               2        2        2        0       0
                text143                            227B     227B        3     44F6       0
                text142                            182A     182A        1     3054       0
                text141                            22A6     22A6        4     454C       0
                text140                            227E     227E        3     44FC       0
                text139                            22E0     22E0        5     45C0       0
                text138                            240A     240A        C     4814       0
                text137                            2281     2281        3     4502       0
                text136                            1838     1838       2A     3070       0
                text135                            2318     2318        7     4630       0
                text134                            22E5     22E5        5     45CA       0
                text133                            22AA     22AA        4     4554       0
                text132                            22AE     22AE        4     455C       0
                text131                            22B2     22B2        4     4564       0
                text130                            22B6     22B6        4     456C       0
                text129                            2326     2326        8     464C       0
                text128                            231F     231F        7     463E       0
                text127                            22F4     22F4        6     45E8       0
                text126                            22BA     22BA        4     4574       0
                text125                            22BE     22BE        4     457C       0
                text124                            22C2     22C2        4     4584       0
                text123                            26FC     26FC       24     4DF8       0
                text122                            1C46     1C46       4E     388C       0
                text121                            1988     1988       3F     3310       0
                text120                            2284     2284        3     4508       0
                text119                            2615     2615       20     4C2A       0
                text117                            2635     2635       20     4C6A       0
                text116                            2517     2517       1A     4A2E       0
                text115                            23AC     23AC        A     4758       0
                text114                            1921     1921       33     3242       0
                text113                            232E     232E        8     465C       0
                text112                            237F     237F        9     46FE       0
                text111                            24A9     24A9       14     4952       0
                text110                            2388     2388        9     4710       0
                text109                            2484     2484       12     4908       0
                text108                            22C6     22C6        4     458C       0
                text107                            24BD     24BD       15     497A       0
                text106                            1891     1891       30     3122       0
                text105                            1DDB     1DDB       58     3BB6       0
                text104                            24FF     24FF       18     49FE       0
                text103                            2696     2696       21     4D2C       0
                text102                            2287     2287        3     450E       0
                text101                            228A     228A        3     4514       0
                text100                            1787     1787       79     2F0E       0
                text99                             1CE4     1CE4       52     39C8       0
                text98                             228D     228D        3     451A       0
                text97                             22CA     22CA        4     4594       0
                text96                             2290     2290        3     4520       0
                text95                             2293     2293        3     4526       0
                text94                             22FA     22FA        6     45F4       0
                text93                             2300     2300        6     4600       0
                text92                             2296     2296        3     452C       0
                text91                              800      800        1        8       0
                text90                             22CE     22CE        4     459C       0
                text89                             2299     2299        3     4532       0
                text88                             2306     2306        6     460C       0
                text87                             182B     182B        D     3056       0
                text86                             229C     229C        3     4538       0
                text85                             1862     1862       2F     30C4       0
                text84                             23DE     23DE        B     47BC       0
                text83                             2391     2391        9     4722       0
                text82                             2336     2336        8     466C       0
                text81                             233E     233E        8     467C       0
                text80                             2346     2346        8     468C       0
                text79                             234E     234E        8     469C       0
                text78                             2416     2416        C     482C       0
                text77                             23E9     23E9        B     47D2       0
                text76                             23B6     23B6        A     476C       0
                text75                             2356     2356        8     46AC       0
                text74                             235E     235E        8     46BC       0
                text73                             2366     2366        8     46CC       0
                text72                              7D3      7D3       2B        8       0
                text71                             1E33     1E33       59     3C66       0
                text70                             1A8C     1A8C       44     3518       0
                text69                             229F     229F        3     453E       0
                text68                             27B1     27B1       26     4F62       0
                text67                             23F4     23F4        B     47E8       0
                text66                             23FF     23FF        B     47FE       0
                text65                             23C0     23C0        A     4780       0
                text64                             2720     2720       24     4E40       0
                text63                             24D2     24D2       15     49A4       0
                text62                             1D88     1D88       53     3B10       0
                text61                             1A06     1A06       43     340C       0
                text60                             278C     278C       25     4F18       0
                text59                             230C     230C        6     4618       0
                text58                              6A1      6A1      132        8       0
                text57                             2744     2744       24     4E88       0
                text56                             1AD0     1AD0       47     35A0       0
                text55                             2473     2473       11     48E6       0
                text54                             1C94     1C94       50     3928       0
                text53                              938      938       89     1270       0
                text52                               C0       C0      2B0        8       0
                text51                              ECF      ECF      131     1D9E       0
                text50                             1E8C     1E8C       5B     3D18       0
                text49                             2768     2768       24     4ED0       0
                text48                              BF6      BF6       DE     17EC       0
                text47                              838      838       79     1070       0
                text46                             14E0     14E0       69     29C0       0
                text45                              A54      A54       C7     14A8       0
                text44                             1BAC     1BAC       4D     3758       0
                text43                             26D9     26D9       23     4DB2       0
                text42                             1BF9     1BF9       4D     37F2       0
                text41                             19C7     19C7       3F     338E       0
                text40                             1711     1711       76     2E22       0
                text39                             1A49     1A49       43     3492       0
                text38                             2496     2496       13     492C       0
                text37                             22EA     22EA        5     45D4       0
                text36                             147B     147B       65     28F6       0
                text35                             26B7     26B7       22     4D6E       0
                text34                              DB5      DB5      11A     1B6A       0
                text33                              CD4      CD4       E1     19A8       0
                text32                              8B1      8B1       87     1162       0
                text31                             1EE7     1EE7       5B     3DCE       0
                text30                             22EF     22EF        5     45DE       0
                text29                             1D36     1D36       52     3A6C       0
                text28                             1F42     1F42       5B     3E84       0
                text27                              9C1      9C1       93     1382       0
                text26                             25D9     25D9       1E     4BB2       0
                text25                             1417     1417       64     282E       0
                text24                             25F7     25F7       1E     4BEE       0
                text23                             1629     1629       73     2C52       0
                text22                             259E     259E       1D     4B3C       0
                text21                             254B     254B       1B     4A96       0
                text20                             169C     169C       75     2D38       0
                swtext1                            1800     1800       2A     3000       0
                text19                              370      370      19E        8       0
                text18                             23CA     23CA        A     4794       0
                text17                             23D4     23D4        A     47A8       0
                text16                             239A     239A        9     4734       0
                text15                             23A3     23A3        9     4746       0
                text14                             1B60     1B60       4C     36C0       0
                text13                             236E     236E        8     46DC       0
                text12                             1F9D     1F9D       63     3F3A       0
                text11                              B1B      B1B       DB     1636       0
                text10                             2582     2582       1C     4B04       0
                text9                              2454     2454        F     48A8       0
                text8                              15B8     15B8       71     2B70       0
                text7                              2463     2463       10     48C6       0
                text6                              1954     1954       34     32A8       0
                text5                              2531     2531       1A     4A62       0
                text4                              18C1     18C1       30     3182       0
                text3                              18F1     18F1       30     31E2       0
                text2                              13CC     13CC       4B     2798       0
                text1                               50E      50E      193        8       0
                maintext                           1549     1549       6F     2A92       0
                cstackBANK0                          20       20       2E       20       1
                cstackCOMMON                         70       70        D       70       1
                cstackBANK1                          A0       A0       39       A0       1
                cstackBANK4                         240      240       1C      220       1
                clrtext                            2422     2422        C     4844       0
                inittext                           242E     242E        C     485C       0
                dataBANK4                           220      220       20      220       1
                bssBANK3                            1A0      1A0       39      1A0       1
                dataBANK2                           16E      16E        2      120       1
                bssBANK2                            120      120       4C      120       1
                dataBANK1                            E9       E9        6       A0       1
                bssBANK1                             D9       D9       10       A0       1
                dataBANK0                            5A       5A        4       20       1
                bssBANK0                             4E       4E        C       20       1
                bssCOMMON                            7D       7D        1       70       1
                stringtext60                       2A75     2A75        2     5000       0
                stringtext59                       2A73     2A73        2     5000       0
                stringtext58                       2A71     2A71        2     5000       0
                stringtext57                       2A6C     2A6C        3     5000       0
                stringtext56                       2A69     2A69        3     5000       0
                stringtext55                       2A5F     2A5F        4     5000       0
                stringtext54                       2A5B     2A5B        4     5000       0
                stringtext53                       2A57     2A57        4     5000       0
                stringtext52                       2A53     2A53        4     5000       0
                stringtext51                       2A4F     2A4F        4     5000       0
                stringtext50                       2A4A     2A4A        5     5000       0
                stringtext49                       2A45     2A45        5     5000       0
                stringtext48                       2A40     2A40        5     5000       0
                stringtext47                       2A3B     2A3B        5     5000       0
                stringtext46                       2A36     2A36        5     5000       0
                stringtext45                       2A31     2A31        5     5000       0
                stringtext44                       2A2A     2A2A        7     5000       0
                stringtext43                       2A23     2A23        7     5000       0
                stringtext42                       2A1B     2A1B        8     5000       0
                stringtext41                       2A13     2A13        8     5000       0
                stringtext40                       2A0B     2A0B        8     5000       0
                stringtext39                       2A03     2A03        8     5000       0
                stringtext38                       29FB     29FB        8     5000       0
                stringtext37                       29F3     29F3        8     5000       0
                stringtext36                       29EB     29EB        8     5000       0
                stringtext35                       29E3     29E3        8     5000       0
                stringtext34                       29DA     29DA        9     5000       0
                stringtext33                       29D1     29D1        9     5000       0
                stringtext32                       29C6     29C6        B     5000       0
                stringtext31                       29BB     29BB        B     5000       0
                stringtext30                       29AF     29AF        C     5000       0
                stringtext29                       2996     2996        D     5000       0
                stringtext28                       2988     2988        E     5000       0
                stringtext27                       2979     2979        F     5000       0
                stringtext26                       296A     296A        F     5000       0
                stringtext25                       294B     294B       10     5000       0
                stringtext24                       293B     293B       10     5000       0
                stringtext23                       292B     292B       10     5000       0
                stringtext22                       291A     291A       11     5000       0
                stringtext21                       2909     2909       11     5000       0
                stringtext20                       28F8     28F8       11     5000       0
                stringtext19                       28E6     28E6       12     5000       0
                stringtext18                       28CF     28CF       17     5000       0
                stringtext17                       28B6     28B6       19     5000       0
                stringtext16                       289C     289C       1A     5000       0
                stringtext15                       2881     2881       1B     5000       0
                stringtext14                       2865     2865       1C     5000       0
                stringtext13                       2847     2847       1E     5000       0
                stringtext12                       2828     2828       1F     5000       0
                nvBANK3                             1D9      1D9        2      1A0       1
                nvBANK2                             16C      16C        2      120       1
                nvBANK0                              5E       5E        1       20       1
                stringtext11                       29A3     29A3        C     5000       0
                stringtext10                       295B     295B        F     5000       0
                stringtext9                        10F4     10F4       F4     2000       0
                stringtext8                        2A77     2A77        1     5000       0
                stringtext7                        2A6F     2A6F        2     5000       0
                stringtext6                        2A66     2A66        3     5000       0
                stringtext5                        2A63     2A63        3     5000       0
                stringtext4                        2800     2800       28     5000       0
                stringtext3                        12DA     12DA       F2     2000       0
                stringtext2                        11E8     11E8       F2     2000       0
                stringtext1                        1000     1000       F4     2000       0
                idataBANK4                         2655     2655       20     4CAA       0
                idataBANK2                          7FE      7FE        2        8       0
                idataBANK1                         2312     2312        6     4624       0
                idataBANK0                         22D2     22D2        4     45A4       0

TOTAL           Name                               Link     Load   Length     Space
        CLASS   STACK          

        CLASS   CODE           
                end_init                             50       50        2         0
                cinit                                52       52       6E         0
                intentry                              4        4       4C         0
                reset_vec                             0        0        2         0
                text164                            2566     2566       1C         0
                text163                            25BB     25BB       1E         0
                text162                            2269     2269        3         0
                text161                            22D6     22D6        5         0
                text160                            27D7     27D7       29         0
                text159                            1B17     1B17       49         0
                text158                            24E7     24E7       18         0
                text157                            2675     2675       21         0
                text156                             801      801       37         0
                text155                            243A     243A        D         0
                text154                            226C     226C        3         0
                text153                            22DB     22DB        5         0
                text152                            2376     2376        9         0
                text151                            2447     2447        D         0
                text150                            226F     226F        3         0
                text149                            2272     2272        3         0
                text148                            22A2     22A2        4         0
                text147                            2275     2275        3         0
                text146                            2278     2278        3         0
                text145                            2267     2267        2         0
                text144                               2        2        2         0
                text143                            227B     227B        3         0
                text142                            182A     182A        1         0
                text141                            22A6     22A6        4         0
                text140                            227E     227E        3         0
                text139                            22E0     22E0        5         0
                text138                            240A     240A        C         0
                text137                            2281     2281        3         0
                text136                            1838     1838       2A         0
                text135                            2318     2318        7         0
                text134                            22E5     22E5        5         0
                text133                            22AA     22AA        4         0
                text132                            22AE     22AE        4         0
                text131                            22B2     22B2        4         0
                text130                            22B6     22B6        4         0
                text129                            2326     2326        8         0
                text128                            231F     231F        7         0
                text127                            22F4     22F4        6         0
                text126                            22BA     22BA        4         0
                text125                            22BE     22BE        4         0
                text124                            22C2     22C2        4         0
                text123                            26FC     26FC       24         0
                text122                            1C46     1C46       4E         0
                text121                            1988     1988       3F         0
                text120                            2284     2284        3         0
                text119                            2615     2615       20         0
                text117                            2635     2635       20         0
                text116                            2517     2517       1A         0
                text115                            23AC     23AC        A         0
                text114                            1921     1921       33         0
                text113                            232E     232E        8         0
                text112                            237F     237F        9         0
                text111                            24A9     24A9       14         0
                text110                            2388     2388        9         0
                text109                            2484     2484       12         0
                text108                            22C6     22C6        4         0
                text107                            24BD     24BD       15         0
                text106                            1891     1891       30         0
                text105                            1DDB     1DDB       58         0
                text104                            24FF     24FF       18         0
                text103                            2696     2696       21         0
                text102                            2287     2287        3         0
                text101                            228A     228A        3         0
                text100                            1787     1787       79         0
                text99                             1CE4     1CE4       52         0
                text98                             228D     228D        3         0
                text97                             22CA     22CA        4         0
                text96                             2290     2290        3         0
                text95                             2293     2293        3         0
                text94                             22FA     22FA        6         0
                text93                             2300     2300        6         0
                text92                             2296     2296        3         0
                text91                              800      800        1         0
                text90                             22CE     22CE        4         0
                text89                             2299     2299        3         0
                text88                             2306     2306        6         0
                text87                             182B     182B        D         0
                text86                             229C     229C        3         0
                text85                             1862     1862       2F         0
                text84                             23DE     23DE        B         0
                text83                             2391     2391        9         0
                text82                             2336     2336        8         0
                text81                             233E     233E        8         0
                text80                             2346     2346        8         0
                text79                             234E     234E        8         0
                text78                             2416     2416        C         0
                text77                             23E9     23E9        B         0
                text76                             23B6     23B6        A         0
                text75                             2356     2356        8         0
                text74                             235E     235E        8         0
                text73                             2366     2366        8         0
                text72                              7D3      7D3       2B         0
                text71                             1E33     1E33       59         0
                text70                             1A8C     1A8C       44         0
                text69                             229F     229F        3         0
                text68                             27B1     27B1       26         0
                text67                             23F4     23F4        B         0
                text66                             23FF     23FF        B         0
                text65                             23C0     23C0        A         0
                text64                             2720     2720       24         0
                text63                             24D2     24D2       15         0
                text62                             1D88     1D88       53         0
                text61                             1A06     1A06       43         0
                text60                             278C     278C       25         0
                text59                             230C     230C        6         0
                text58                              6A1      6A1      132         0
                text57                             2744     2744       24         0
                text56                             1AD0     1AD0       47         0
                text55                             2473     2473       11         0
                text54                             1C94     1C94       50         0
                text53                              938      938       89         0
                text52                               C0       C0      2B0         0
                text51                              ECF      ECF      131         0
                text50                             1E8C     1E8C       5B         0
                text49                             2768     2768       24         0
                text48                              BF6      BF6       DE         0
                text47                              838      838       79         0
                text46                             14E0     14E0       69         0
                text45                              A54      A54       C7         0
                text44                             1BAC     1BAC       4D         0
                text43                             26D9     26D9       23         0
                text42                             1BF9     1BF9       4D         0
                text41                             19C7     19C7       3F         0
                text40                             1711     1711       76         0
                text39                             1A49     1A49       43         0
                text38                             2496     2496       13         0
                text37                             22EA     22EA        5         0
                text36                             147B     147B       65         0
                text35                             26B7     26B7       22         0
                text34                              DB5      DB5      11A         0
                text33                              CD4      CD4       E1         0
                text32                              8B1      8B1       87         0
                text31                             1EE7     1EE7       5B         0
                text30                             22EF     22EF        5         0
                text29                             1D36     1D36       52         0
                text28                             1F42     1F42       5B         0
                text27                              9C1      9C1       93         0
                text26                             25D9     25D9       1E         0
                text25                             1417     1417       64         0
                text24                             25F7     25F7       1E         0
                text23                             1629     1629       73         0
                text22                             259E     259E       1D         0
                text21                             254B     254B       1B         0
                text20                             169C     169C       75         0
                text19                              370      370      19E         0
                text18                             23CA     23CA        A         0
                text17                             23D4     23D4        A         0
                text16                             239A     239A        9         0
                text15                             23A3     23A3        9         0
                text14                             1B60     1B60       4C         0
                text13                             236E     236E        8         0
                text12                             1F9D     1F9D       63         0
                text11                              B1B      B1B       DB         0
                text10                             2582     2582       1C         0
                text9                              2454     2454        F         0
                text8                              15B8     15B8       71         0
                text7                              2463     2463       10         0
                text6                              1954     1954       34         0
                text5                              2531     2531       1A         0
                text4                              18C1     18C1       30         0
                text3                              18F1     18F1       30         0
                text2                              13CC     13CC       4B         0
                text1                               50E      50E      193         0
                maintext                           1549     1549       6F         0
                clrtext                            2422     2422        C         0
                inittext                           242E     242E        C         0
                idataBANK4                         2655     2655       20         0
                idataBANK2                          7FE      7FE        2         0
                idataBANK1                         2312     2312        6         0
                idataBANK0                         22D2     22D2        4         0

        CLASS   STRCODE        
                stringtext60                       2A75     2A75        2         0
                stringtext59                       2A73     2A73        2         0
                stringtext58                       2A71     2A71        2         0
                stringtext57                       2A6C     2A6C        3         0
                stringtext56                       2A69     2A69        3         0
                stringtext55                       2A5F     2A5F        4         0
                stringtext54                       2A5B     2A5B        4         0
                stringtext53                       2A57     2A57        4         0
                stringtext52                       2A53     2A53        4         0
                stringtext51                       2A4F     2A4F        4         0
                stringtext50                       2A4A     2A4A        5         0
                stringtext49                       2A45     2A45        5         0
                stringtext48                       2A40     2A40        5         0
                stringtext47                       2A3B     2A3B        5         0
                stringtext46                       2A36     2A36        5         0
                stringtext45                       2A31     2A31        5         0
                stringtext44                       2A2A     2A2A        7         0
                stringtext43                       2A23     2A23        7         0
                stringtext42                       2A1B     2A1B        8         0
                stringtext41                       2A13     2A13        8         0
                stringtext40                       2A0B     2A0B        8         0
                stringtext39                       2A03     2A03        8         0
                stringtext38                       29FB     29FB        8         0
                stringtext37                       29F3     29F3        8         0
                stringtext36                       29EB     29EB        8         0
                stringtext35                       29E3     29E3        8         0
                stringtext34                       29DA     29DA        9         0
                stringtext33                       29D1     29D1        9         0
                stringtext32                       29C6     29C6        B         0
                stringtext31                       29BB     29BB        B         0
                stringtext30                       29AF     29AF        C         0
                stringtext29                       2996     2996        D         0
                stringtext28                       2988     2988        E         0
                stringtext27                       2979     2979        F         0
                stringtext26                       296A     296A        F         0
                stringtext25                       294B     294B       10         0
                stringtext24                       293B     293B       10         0
                stringtext23                       292B     292B       10         0
                stringtext22                       291A     291A       11         0
                stringtext21                       2909     2909       11         0
                stringtext20                       28F8     28F8       11         0
                stringtext19                       28E6     28E6       12         0
                stringtext18                       28CF     28CF       17         0
                stringtext17                       28B6     28B6       19         0
                stringtext16                       289C     289C       1A         0
                stringtext15                       2881     2881       1B         0
                stringtext14                       2865     2865       1C         0
                stringtext13                       2847     2847       1E         0
                stringtext12                       2828     2828       1F         0
                stringtext11                       29A3     29A3        C         0
                stringtext10                       295B     295B        F         0
                stringtext9                        10F4     10F4       F4         0
                stringtext8                        2A77     2A77        1         0
                stringtext7                        2A6F     2A6F        2         0
                stringtext6                        2A66     2A66        3         0
                stringtext5                        2A63     2A63        3         0
                stringtext4                        2800     2800       28         0
                stringtext3                        12DA     12DA       F2         0
                stringtext2                        11E8     11E8       F2         0
                stringtext1                        1000     1000       F4         0

        CLASS   STRING         

        CLASS   CONST          
                swtext1                            1800     1800       2A         0

        CLASS   ENTRY          

        CLASS   COMMON         
                cstackCOMMON                         70       70        D         1
                bssCOMMON                            7D       7D        1         1

        CLASS   BANK0          
                cstackBANK0                          20       20       2E         1
                dataBANK0                            5A       5A        4         1
                bssBANK0                             4E       4E        C         1
                nvBANK0                              5E       5E        1         1

        CLASS   BANK1          
                cstackBANK1                          A0       A0       39         1
                dataBANK1                            E9       E9        6         1
                bssBANK1                             D9       D9       10         1

        CLASS   BANK2          
                dataBANK2                           16E      16E        2         1
                bssBANK2                            120      120       4C         1
                nvBANK2                             16C      16C        2         1

        CLASS   BANK3          
                bssBANK3                            1A0      1A0       39         1
                nvBANK3                             1D9      1D9        2         1

        CLASS   BANK4          
                cstackBANK4                         240      240       1C         1
                dataBANK4                           220      220       20         1

        CLASS   BANK5          

        CLASS   BANK6          

        CLASS   BANK7          

        CLASS   BANK8          

        CLASS   BANK9          

        CLASS   BANK10         

        CLASS   BANK11         

        CLASS   BANK12         

        CLASS   BANK13         

        CLASS   BANK14         

        CLASS   BANK15         

        CLASS   BANK16         

        CLASS   BANK17         

        CLASS   BANK18         

        CLASS   BANK19         

        CLASS   BANK20         

        CLASS   BANK21         

        CLASS   BANK22         

        CLASS   BANK23         

        CLASS   BANK24         

        CLASS   BANK25         

        CLASS   BIGRAM         

        CLASS   RAM            

        CLASS   ABS1           
                abs_s1                               7E       7E        2         1
                abs_s1                              C30      C30       40         1
                abs_s1                              CA0      CA0       20         1
                abs_s1                             2790     2790        0         1

        CLASS   SFR0           

        CLASS   SFR1           

        CLASS   SFR2           

        CLASS   SFR3           

        CLASS   SFR4           

        CLASS   SFR5           

        CLASS   SFR6           

        CLASS   SFR7           

        CLASS   SFR8           

        CLASS   SFR9           

        CLASS   SFR10          

        CLASS   SFR11          

        CLASS   SFR12          

        CLASS   SFR13          

        CLASS   SFR14          

        CLASS   SFR15          

        CLASS   SFR16          

        CLASS   SFR17          

        CLASS   SFR18          

        CLASS   SFR19          

        CLASS   SFR20          

        CLASS   SFR21          

        CLASS   SFR22          

        CLASS   SFR23          

        CLASS   SFR24          

        CLASS   SFR25          

        CLASS   SFR26          

        CLASS   SFR27          

        CLASS   SFR28          

        CLASS   SFR29          

        CLASS   SFR30          

        CLASS   SFR31          

        CLASS   CONFIG         
                config                             8007     8007        4         0

        CLASS   IDLOC          
                idloc                              8000     8000        4         0

        CLASS   EEDATA         

        CLASS   BANK31         

        CLASS   BANK30         

        CLASS   BANK29         

        CLASS   BANK28         

        CLASS   BANK27         

        CLASS   BANK26         



SEGMENTS        Name                           Load    Length   Top    Selector   Space  Class     Delta

                reset_vec                      000000  000004  000004         0       0  CODE        2
                intentry                       000004  0007FD  000801         8       0  CODE        2
                cstackBANK0                    000020  00003F  00005F        20       1  BANK0       1
                cstackCOMMON                   000070  00000E  00007E        70       1  COMMON      1
                cstackBANK1                    0000A0  00004F  0000EF        A0       1  BANK1       1
                bssBANK2                       000120  000050  000170       120       1  BANK2       1
                bssBANK3                       0001A0  00003B  0001DB       1A0       1  BANK3       1
                dataBANK4                      000220  00003C  00025C       220       1  BANK4       1
                text156                        000801  000037  000838      1002       0  CODE        2
                text47                         000838  000079  0008B1      1070       0  CODE        2
                text32                         0008B1  000087  000938      1162       0  CODE        2
                text53                         000938  000089  0009C1      1270       0  CODE        2
                text27                         0009C1  000093  000A54      1382       0  CODE        2
                text45                         000A54  0000C7  000B1B      14A8       0  CODE        2
                text11                         000B1B  0000DB  000BF6      1636       0  CODE        2
                text48                         000BF6  0000DE  000CD4      17EC       0  CODE        2
                text33                         000CD4  0000E1  000DB5      19A8       0  CODE        2
                text34                         000DB5  00011A  000ECF      1B6A       0  CODE        2
                text51                         000ECF  000131  001000      1D9E       0  CODE        2
                stringtext1                    001000  0003CC  0013CC      2000       0  STRCODE     2
                text2                          0013CC  00004B  001417      2798       0  CODE        2
                text25                         001417  000064  00147B      282E       0  CODE        2
                text36                         00147B  000065  0014E0      28F6       0  CODE        2
                text46                         0014E0  000069  001549      29C0       0  CODE        2
                maintext                       001549  00006F  0015B8      2A92       0  CODE        2
                text8                          0015B8  000071  001629      2B70       0  CODE        2
                text23                         001629  000073  00169C      2C52       0  CODE        2
                text20                         00169C  000075  001711      2D38       0  CODE        2
                text40                         001711  000076  001787      2E22       0  CODE        2
                text100                        001787  000079  001800      2F0E       0  CODE        2
                swtext1                        001800  00002A  00182A      3000       0  CONST       2
                text142                        00182A  000001  00182B      3054       0  CODE        2
                text87                         00182B  00000D  001838      3056       0  CODE        2
                text136                        001838  00002A  001862      3070       0  CODE        2
                text85                         001862  00002F  001891      30C4       0  CODE        2
                text106                        001891  000030  0018C1      3122       0  CODE        2
                text4                          0018C1  000030  0018F1      3182       0  CODE        2
                text3                          0018F1  000030  001921      31E2       0  CODE        2
                text114                        001921  000033  001954      3242       0  CODE        2
                text6                          001954  000034  001988      32A8       0  CODE        2
                text121                        001988  00003F  0019C7      3310       0  CODE        2
                text41                         0019C7  00003F  001A06      338E       0  CODE        2
                text61                         001A06  000043  001A49      340C       0  CODE        2
                text39                         001A49  000043  001A8C      3492       0  CODE        2
                text70                         001A8C  000044  001AD0      3518       0  CODE        2
                text56                         001AD0  000047  001B17      35A0       0  CODE        2
                text159                        001B17  000049  001B60      362E       0  CODE        2
                text14                         001B60  00004C  001BAC      36C0       0  CODE        2
                text44                         001BAC  00004D  001BF9      3758       0  CODE        2
                text42                         001BF9  00004D  001C46      37F2       0  CODE        2
                text122                        001C46  00004E  001C94      388C       0  CODE        2
                text54                         001C94  000050  001CE4      3928       0  CODE        2
                text99                         001CE4  000052  001D36      39C8       0  CODE        2
                text29                         001D36  000052  001D88      3A6C       0  CODE        2
                text62                         001D88  000053  001DDB      3B10       0  CODE        2
                text105                        001DDB  000058  001E33      3BB6       0  CODE        2
                text71                         001E33  000059  001E8C      3C66       0  CODE        2
                text50                         001E8C  00005B  001EE7      3D18       0  CODE        2
                text31                         001EE7  00005B  001F42      3DCE       0  CODE        2
                text28                         001F42  00005B  001F9D      3E84       0  CODE        2
                text12                         001F9D  000063  002000      3F3A       0  CODE        2
                text145                        002267  000002  002269      44CE       0  CODE        2
                text162                        002269  000003  00226C      44D2       0  CODE        2
                text154                        00226C  000003  00226F      44D8       0  CODE        2
                text150                        00226F  000003  002272      44DE       0  CODE        2
                text149                        002272  000003  002275      44E4       0  CODE        2
                text147                        002275  000003  002278      44EA       0  CODE        2
                text146                        002278  000003  00227B      44F0       0  CODE        2
                text143                        00227B  000003  00227E      44F6       0  CODE        2
                text140                        00227E  000003  002281      44FC       0  CODE        2
                text137                        002281  000003  002284      4502       0  CODE        2
                text120                        002284  000003  002287      4508       0  CODE        2
                text102                        002287  000003  00228A      450E       0  CODE        2
                text101                        00228A  000003  00228D      4514       0  CODE        2
                text98                         00228D  000003  002290      451A       0  CODE        2
                text96                         002290  000003  002293      4520       0  CODE        2
                text95                         002293  000003  002296      4526       0  CODE        2
                text92                         002296  000003  002299      452C       0  CODE        2
                text89                         002299  000003  00229C      4532       0  CODE        2
                text86                         00229C  000003  00229F      4538       0  CODE        2
                text69                         00229F  000003  0022A2      453E       0  CODE        2
                text148                        0022A2  000004  0022A6      4544       0  CODE        2
                text141                        0022A6  000004  0022AA      454C       0  CODE        2
                text133                        0022AA  000004  0022AE      4554       0  CODE        2
                text132                        0022AE  000004  0022B2      455C       0  CODE        2
                text131                        0022B2  000004  0022B6      4564       0  CODE        2
                text130                        0022B6  000004  0022BA      456C       0  CODE        2
                text126                        0022BA  000004  0022BE      4574       0  CODE        2
                text125                        0022BE  000004  0022C2      457C       0  CODE        2
                text124                        0022C2  000004  0022C6      4584       0  CODE        2
                text108                        0022C6  000004  0022CA      458C       0  CODE        2
                text97                         0022CA  000004  0022CE      4594       0  CODE        2
                text90                         0022CE  000004  0022D2      459C       0  CODE        2
                idataBANK0                     0022D2  000004  0022D6      45A4       0  CODE        2
                text161                        0022D6  000005  0022DB      45AC       0  CODE        2
                text153                        0022DB  000005  0022E0      45B6       0  CODE        2
                text139                        0022E0  000005  0022E5      45C0       0  CODE        2
                text134                        0022E5  000005  0022EA      45CA       0  CODE        2
                text37                         0022EA  000005  0022EF      45D4       0  CODE        2
                text30                         0022EF  000005  0022F4      45DE       0  CODE        2
                text127                        0022F4  000006  0022FA      45E8       0  CODE        2
                text94                         0022FA  000006  002300      45F4       0  CODE        2
                text93                         002300  000006  002306      4600       0  CODE        2
                text88                         002306  000006  00230C      460C       0  CODE        2
                text59                         00230C  000006  002312      4618       0  CODE        2
                idataBANK1                     002312  000006  002318      4624       0  CODE        2
                text135                        002318  000007  00231F      4630       0  CODE        2
                text128                        00231F  000007  002326      463E       0  CODE        2
                text129                        002326  000008  00232E      464C       0  CODE        2
                text113                        00232E  000008  002336      465C       0  CODE        2
                text82                         002336  000008  00233E      466C       0  CODE        2
                text81                         00233E  000008  002346      467C       0  CODE        2
                text80                         002346  000008  00234E      468C       0  CODE        2
                text79                         00234E  000008  002356      469C       0  CODE        2
                text75                         002356  000008  00235E      46AC       0  CODE        2
                text74                         00235E  000008  002366      46BC       0  CODE        2
                text73                         002366  000008  00236E      46CC       0  CODE        2
                text13                         00236E  000008  002376      46DC       0  CODE        2
                text152                        002376  000009  00237F      46EC       0  CODE        2
                text112                        00237F  000009  002388      46FE       0  CODE        2
                text110                        002388  000009  002391      4710       0  CODE        2
                text83                         002391  000009  00239A      4722       0  CODE        2
                text16                         00239A  000009  0023A3      4734       0  CODE        2
                text15                         0023A3  000009  0023AC      4746       0  CODE        2
                text115                        0023AC  00000A  0023B6      4758       0  CODE        2
                text76                         0023B6  00000A  0023C0      476C       0  CODE        2
                text65                         0023C0  00000A  0023CA      4780       0  CODE        2
                text18                         0023CA  00000A  0023D4      4794       0  CODE        2
                text17                         0023D4  00000A  0023DE      47A8       0  CODE        2
                text84                         0023DE  00000B  0023E9      47BC       0  CODE        2
                text77                         0023E9  00000B  0023F4      47D2       0  CODE        2
                text67                         0023F4  00000B  0023FF      47E8       0  CODE        2
                text66                         0023FF  00000B  00240A      47FE       0  CODE        2
                text138                        00240A  00000C  002416      4814       0  CODE        2
                text78                         002416  00000C  002422      482C       0  CODE        2
                clrtext                        002422  00000C  00242E      4844       0  CODE        2
                inittext                       00242E  00000C  00243A      485C       0  CODE        2
                text155                        00243A  00000D  002447      4874       0  CODE        2
                text151                        002447  00000D  002454      488E       0  CODE        2
                text9                          002454  00000F  002463      48A8       0  CODE        2
                text7                          002463  000010  002473      48C6       0  CODE        2
                text55                         002473  000011  002484      48E6       0  CODE        2
                text109                        002484  000012  002496      4908       0  CODE        2
                text38                         002496  000013  0024A9      492C       0  CODE        2
                text111                        0024A9  000014  0024BD      4952       0  CODE        2
                text107                        0024BD  000015  0024D2      497A       0  CODE        2
                text63                         0024D2  000015  0024E7      49A4       0  CODE        2
                text158                        0024E7  000018  0024FF      49CE       0  CODE        2
                text104                        0024FF  000018  002517      49FE       0  CODE        2
                text116                        002517  00001A  002531      4A2E       0  CODE        2
                text5                          002531  00001A  00254B      4A62       0  CODE        2
                text21                         00254B  00001B  002566      4A96       0  CODE        2
                text164                        002566  00001C  002582      4ACC       0  CODE        2
                text10                         002582  00001C  00259E      4B04       0  CODE        2
                text22                         00259E  00001D  0025BB      4B3C       0  CODE        2
                text163                        0025BB  00001E  0025D9      4B76       0  CODE        2
                text26                         0025D9  00001E  0025F7      4BB2       0  CODE        2
                text24                         0025F7  00001E  002615      4BEE       0  CODE        2
                text119                        002615  000020  002635      4C2A       0  CODE        2
                text117                        002635  000020  002655      4C6A       0  CODE        2
                idataBANK4                     002655  000020  002675      4CAA       0  CODE        2
                text157                        002675  000021  002696      4CEA       0  CODE        2
                text103                        002696  000021  0026B7      4D2C       0  CODE        2
                text35                         0026B7  000022  0026D9      4D6E       0  CODE        2
                text43                         0026D9  000023  0026FC      4DB2       0  CODE        2
                text123                        0026FC  000024  002720      4DF8       0  CODE        2
                text64                         002720  000024  002744      4E40       0  CODE        2
                text57                         002744  000024  002768      4E88       0  CODE        2
                text49                         002768  000024  00278C      4ED0       0  CODE        2
                text60                         00278C  000025  0027B1      4F18       0  CODE        2
                text68                         0027B1  000026  0027D7      4F62       0  CODE        2
                text160                        0027D7  000029  002800      4FAE       0  CODE        2
                stringtext4                    002800  000278  002A78      5000       0  STRCODE     2
                idloc                          008000  000004  008004     10000       0  IDLOC       2
                config                         008007  000004  00800B     1000E       0  CONFIG      2


UNUSED ADDRESS RANGES

        Name                Unused          Largest block    Delta
        BANK0            0005F-0006F              11           1
        BANK1            000EF-000EF               1           1
        BANK10           00520-0056F              50           1
        BANK11           005A0-005EF              50           1
        BANK12           00620-0066F              50           1
        BANK13           006A0-006EF              50           1
        BANK14           00720-0076F              50           1
        BANK15           007A0-007EF              50           1
        BANK16           00820-0086F              50           1
        BANK17           008A0-008EF              50           1
        BANK18           00920-0096F              50           1
        BANK19           009A0-009EF              50           1
        BANK20           00A20-00A6F              50           1
        BANK21           00AA0-00AEF              50           1
        BANK22           00B20-00B6F              50           1
        BANK23           00BA0-00BEF              50           1
        BANK24           00C20-00C2F              10           1
        BANK3            001DB-001EF              15           1
        BANK4            0025C-0026F              14           1
        BANK5            002A0-002EF              50           1
        BANK6            00320-0036F              50           1
        BANK7            003A0-003EF              50           1
        BANK8            00420-0046F              50           1
        BANK9            004A0-004EF              50           1
        BIGRAM           02000-027EF             7F0           1
        CODE             02000-02266             267           2
                         02A78-03FFF             800
        CONST            02000-02266             100           2
                         02A78-03FFF             100
        EEDATA           0F000-0F0FF             100           2
        ENTRY            02000-02266             100           2
                         02A78-03FFF             100
        RAM              0005F-0006F              11           1
                         000EF-000EF               1
                         001DB-001EF              15
                         0025C-0026F              14
                         002A0-002EF              50
                         00320-0036F              50
                         003A0-003EF              50
                         00420-0046F              50
                         004A0-004EF              50
                         00520-0056F              50
                         005A0-005EF              50
                         00620-0066F              50
                         006A0-006EF              50
                         00720-0076F              50
                         007A0-007EF              50
                         00820-0086F              50
                         008A0-008EF              50
                         00920-0096F              50
                         009A0-009EF              50
                         00A20-00A6F              50
                         00AA0-00AEF              50
                         00B20-00B6F              50
                         00BA0-00BEF              50
                         00C20-00C2F              10
        SFR0             00000-0001F              20           1
        SFR1             00080-0009F              20           1
        SFR10            00500-0051F              20           1
        SFR11            00580-0059F              20           1
        SFR12            00600-0061F              20           1
        SFR13            00680-0069F              20           1
        SFR14            00700-0071F              20           1
        SFR15            00780-0079F              20           1
        SFR16            00800-0081F              20           1
        SFR17            00880-0089F              20           1
        SFR18            00900-0091F              20           1
        SFR19            00980-0099F              20           1
        SFR2             00100-0011F              20           1
        SFR20            00A00-00A1F              20           1
        SFR21            00A80-00A9F              20           1
        SFR22            00B00-00B1F              20           1
        SFR23            00B80-00B9F              20           1
        SFR24            00C00-00C1F              20           1
        SFR25            00C80-00C9F              20           1
        SFR26            00D00-00D6F              70           1
        SFR27            00D80-00DEF              70           1
        SFR28            00E00-00E6F              70           1
        SFR29            00E80-00EEF              70           1
        SFR3             00180-0019F              20           1
        SFR30            00F00-00F6F              70           1
        SFR31            00F80-00FEF              70           1
        SFR4             00200-0021F              20           1
        SFR5             00280-0029F              20           1
        SFR6             00300-0031F              20           1
        SFR7             00380-0039F              20           1
        SFR8             00400-0041F              20           1
        SFR9             00480-0049F              20           1
        STACK            0217C-0278F             614           1
        STRCODE          02000-02266             267           2
                         02A78-03FFF            1588
        STRING           02000-02266             100           2
                         02A78-03FFF             100

                                  Symbol Table

?_LED_getData                             cstackBANK1  000B5
?_LED_readConfig                          cstackBANK1  000C5
?_LED_testComm                            cstackBANK1  000C9
?___awdiv                                 cstackBANK0  00031
?___awtoft                                cstackBANK0  00039
?___ftadd                                 cstackBANK1  000A6
?___ftmul                                 cstackBANK0  0003F
?___ftpack                                cstackBANK0  00031
?___fttol                                 cstackBANK1  000AF
?___lldiv                                 cstackBANK0  00031
?___llmod                                 cstackBANK0  0003F
?___wmul                                  cstackBANK0  00031
?_atoi                                    cstackBANK0  00037
?_doMove                                  cstackBANK1  000BF
?_drv_read                                cstackBANK1  000B5
?_getActive                               cstackBANK1  000B5
?_getMoveMask                             cstackBANK1  000B5
?_getPosition                             cstackBANK1  000B5
?_printf                                  cstackBANK1  000A0
?_setActive                               cstackBANK1  000B5
?_setDrvGain                              cstackBANK1  000B5
?_setDrvPeak                              cstackBANK1  000B5
?_setDrvPiezoOnTime                       cstackBANK1  000BD
?_setHeaterPostTime                       cstackBANK1  000BD
?_setHeaterPreTime                        cstackBANK1  000BD
?_setHeaterToggle                         cstackBANK1  000B5
?_setLEDBrightnessRange                   cstackBANK1  000B5
?_setLEDPwr                               cstackBANK1  000B5
?_setMoveMask                             cstackBANK1  000B5
?_startAbsMove                            cstackBANK1  000B5
?_startRelMove                            cstackBANK1  000B5
?_strchr                                  cstackBANK0  00031
?_strcspn                                 cstackBANK0  00038
?_stricmp                                 cstackBANK0  00033
?_strspn                                  cstackBANK0  00038
?_zeroPosition                            cstackBANK1  000B5
EUSART_Read@readValue                     cstackBANK0  00032
EUSART_Write@txData                       cstackBANK0  00032
LED_getData@j                             cstackBANK1  000C3
LED_getData@readData                      cstackBANK1  000BF
LED_readConfig@topOrBottom                cstackBANK1  000C5
LED_setBrightnessRange@LED_configReg      cstackBANK0  00048
LED_setBrightnessRange@range              cstackBANK0  00044
LED_setBrightnessRange@topOrBottom        cstackBANK0  00046
LED_testComm@oldConfigReg                 cstackBANK1  000CD
LED_testComm@readResult                   cstackBANK1  000CB
LED_testComm@topOrBottom                  cstackBANK1  000C9
LED_test_openshort@j                      cstackBANK1  000BE
LED_test_openshort@readData               cstackBANK1  000BA
LED_test_openshort@topOrBottom            cstackBANK1  000B7
LED_test_openshort@type                   cstackBANK1  000B5
LEDsOn@LEDpins                            cstackBANK0  00044
LEDsOn@topOrBottom                        cstackBANK0  00048
LEDsPwr@pwr                               cstackBANK0  00044
LEDsPwr@pwrAll                            cstackBANK1  000A0
LEDsPwr@topOrBottom                       cstackBANK0  00046
TMR0_Load8bitPeriod@periodVal             cstackBANK0  00031
TMR0_SetInterruptHandler@InterruptHandler cstackBANK0  00031
TMR0_Write8bitTimer@timerVal              cstackCOMMON 00070
TMR2_LoadPeriodRegister@periodVal         cstackBANK0  00031
TMR2_SetInterruptHandler@InterruptHandler cstackBANK0  00031
TMR2_WriteTimer@timerVal                  cstackCOMMON 00070
_ANSELA                                   (abs)        0018C
_ANSELB                                   (abs)        0018D
_ANSELC                                   (abs)        0018E
_BAUD1CON                                 (abs)        0019F
_EUSART_Initialize                        text116      02517
_EUSART_Read                              text117      02635
_EUSART_Receive_ISR                       text164      02566
_EUSART_Transmit_ISR                      text163      025BB
_EUSART_Write                             text60       0278C
_INTCONbits                               (abs)        0000B
_INTERRUPT_InterruptManager               intentry     00004
_LATA                                     (abs)        0010C
_LATAbits                                 (abs)        0010C
_LATB                                     (abs)        0010D
_LATBbits                                 (abs)        0010D
_LATC                                     (abs)        0010E
_LATCbits                                 (abs)        0010E
_LED_configReg_bot                        bssBANK2     0014A
_LED_configReg_top                        bssBANK2     0014E
_LED_getData                              text50       01E8C
_LED_readConfig                           text49       02768
_LED_setBrightnessRange                   text48       00BF6
_LED_testComm                             text47       00838
_LED_test_openshort                       text46       014E0
_LEDpower                                 stringtext7  02A6F
_LEDsOn                                   text103      02696
_LEDsPwr                                  text25       01417
_NVMADRH                                  (abs)        00892
_NVMADRL                                  (abs)        00891
_NVMCON1bits                              (abs)        00895
_NVMCON2                                  (abs)        00896
_NVMDATH                                  (abs)        00894
_NVMDATL                                  (abs)        00893
_ODCONA                                   (abs)        0028C
_ODCONB                                   (abs)        0028D
_ODCONC                                   (abs)        0028E
_OSCCON1                                  (abs)        00919
_OSCCON3                                  (abs)        0091B
_OSCEN                                    (abs)        0091D
_OSCFRQ                                   (abs)        0091F
_OSCILLATOR_Initialize                    text115      023AC
_OSCTUNE                                  (abs)        0091E
_PIE0bits                                 (abs)        00090
_PIE1bits                                 (abs)        00091
_PIN_MANAGER_Initialize                   text114      01921
_PIR0bits                                 (abs)        00010
_PIR1bits                                 (abs)        00011
_PMD0                                     (abs)        00911
_PMD1                                     (abs)        00912
_PMD2                                     (abs)        00913
_PMD3                                     (abs)        00914
_PMD4                                     (abs)        00915
_PMD5                                     (abs)        00916
_PMD_Initialize                           text113      0232E
_PORTCbits                                (abs)        0000E
_PR2                                      (abs)        0001E
_RB5PPSbits                               (abs)        00E9D
_RB6PPSbits                               (abs)        00E9E
_RB7PPSbits                               (abs)        00E9F
_RC1REG                                   (abs)        00199
_RC1STA                                   (abs)        0019D
_RC1STAbits                               (abs)        0019D
_RXPPSbits                                (abs)        00E24
_SP1BRGH                                  (abs)        0019C
_SP1BRGL                                  (abs)        0019B
_SSP1ADD                                  (abs)        00212
_SSP1BUF                                  (abs)        00211
_SSP1CLKPPSbits                           (abs)        00E20
_SSP1CON1                                 (abs)        00215
_SSP1CON1bits                             (abs)        00215
_SSP1CON2                                 (abs)        00216
_SSP1CON2bits                             (abs)        00216
_SSP1DATPPSbits                           (abs)        00E21
_SSP1MSK                                  (abs)        00213
_SSP1STAT                                 (abs)        00214
_SSP1STATbits                             (abs)        00214
_SYSTEM_Initialize                        text107      024BD
_T0CON0                                   (abs)        00017
_T0CON0bits                               (abs)        00017
_T0CON1                                   (abs)        00018
_T2CON                                    (abs)        0001F
_T2CONbits                                (abs)        0001F
_TMR0H                                    (abs)        00016
_TMR0L                                    (abs)        00015
_TMR0_DefaultInterruptHandler             text156      00801
_TMR0_ISR                                 text155      0243A
_TMR0_Initialize                          text111      024A9
_TMR0_InterruptHandler                    nvBANK2      0016C
_TMR0_Load8bitPeriod                      text37       022EA
_TMR0_RANGE                               stringtext6  02A66
_TMR0_SetInterruptHandler                 text112      0237F
_TMR0_StartTimer                          text102      02287
_TMR0_StopTimer                           text162      02269
_TMR0_Write8bitTimer                      text161      022D6
_TMR2                                     (abs)        0001D
_TMR2_DefaultInterruptHandler             text152      02376
_TMR2_ISR                                 text151      02447
_TMR2_Initialize                          text109      02484
_TMR2_InterruptHandler                    nvBANK3      001D9
_TMR2_LoadPeriodRegister                  text30       022EF
_TMR2_RANGE                               stringtext5  02A63
_TMR2_SetInterruptHandler                 text110      02388
_TMR2_StartTimer                          text101      0228A
_TMR2_StopTimer                           text154      0226C
_TMR2_WriteTimer                          text153      022DB
_TRISA                                    (abs)        0008C
_TRISB                                    (abs)        0008D
_TRISC                                    (abs)        0008E
_TX1REG                                   (abs)        0019A
_TX1STA                                   (abs)        0019E
_WDTCON                                   (abs)        00097
_WDT_Initialize                           text108      022C6
_WPUA                                     (abs)        0020C
_WPUB                                     (abs)        0020D
_WPUC                                     (abs)        0020E
__CFG_BOREN$ON                            (abs)        00000
__CFG_BORV$LOW                            (abs)        00000
__CFG_CLKOUTEN$OFF                        (abs)        00000
__CFG_CP$OFF                              (abs)        00000
__CFG_CPD$OFF                             (abs)        00000
__CFG_CSWEN$ON                            (abs)        00000
__CFG_DEBUG$OFF                           (abs)        00000
__CFG_FCMEN$ON                            (abs)        00000
__CFG_FEXTOSC$OFF                         (abs)        00000
__CFG_LPBOREN$OFF                         (abs)        00000
__CFG_LVP$ON                              (abs)        00000
__CFG_MCLRE$ON                            (abs)        00000
__CFG_PPS1WAY$ON                          (abs)        00000
__CFG_PWRTE$OFF                           (abs)        00000
__CFG_RSTOSC$HFINT1                       (abs)        00000
__CFG_STVREN$ON                           (abs)        00000
__CFG_WDTE$OFF                            (abs)        00000
__CFG_WRT$OFF                             (abs)        00000
__Habs1                                   abs1         00000
__Hbank0                                  bank0        00000
__Hbank1                                  bank1        00000
__Hbank10                                 bank10       00000
__Hbank11                                 bank11       00000
__Hbank12                                 bank12       00000
__Hbank13                                 bank13       00000
__Hbank14                                 bank14       00000
__Hbank15                                 bank15       00000
__Hbank16                                 bank16       00000
__Hbank17                                 bank17       00000
__Hbank18                                 bank18       00000
__Hbank19                                 bank19       00000
__Hbank2                                  bank2        00000
__Hbank20                                 bank20       00000
__Hbank21                                 bank21       00000
__Hbank22                                 bank22       00000
__Hbank23                                 bank23       00000
__Hbank24                                 bank24       00000
__Hbank25                                 bank25       00000
__Hbank26                                 bank26       00000
__Hbank27                                 bank27       00000
__Hbank28                                 bank28       00000
__Hbank29                                 bank29       00000
__Hbank3                                  bank3        00000
__Hbank30                                 bank30       00000
__Hbank31                                 bank31       00000
__Hbank4                                  bank4        00000
__Hbank5                                  bank5        00000
__Hbank6                                  bank6        00000
__Hbank7                                  bank7        00000
__Hbank8                                  bank8        00000
__Hbank9                                  bank9        00000
__Hbigram                                 bigram       00000
__HbssBANK0                               bssBANK0     00000
__HbssBANK1                               bssBANK1     00000
__HbssBANK2                               bssBANK2     00000
__HbssBANK3                               bssBANK3     00000
__HbssCOMMON                              bssCOMMON    00000
__Hcinit                                  cinit        000C0
__Hclrtext                                clrtext      00000
__Hcode                                   code         00000
__Hcommon                                 common       00000
__Hconfig                                 config       0800B
__HcstackBANK0                            cstackBANK0  00000
__HcstackBANK1                            cstackBANK1  00000
__HcstackBANK4                            cstackBANK4  00000
__HcstackCOMMON                           cstackCOMMON 00000
__HdataBANK0                              dataBANK0    00000
__HdataBANK1                              dataBANK1    00000
__HdataBANK2                              dataBANK2    00000
__HdataBANK4                              dataBANK4    00000
__Heeprom_data                            eeprom_data  00000
__Hend_init                               end_init     00052
__Hfunctab                                functab      00000
__HidataBANK0                             idataBANK0   00000
__HidataBANK1                             idataBANK1   00000
__HidataBANK2                             idataBANK2   00000
__HidataBANK4                             idataBANK4   00000
__Hidloc                                  idloc        08004
__Hinit                                   init         00050
__Hinittext                               inittext     00000
__Hintentry                               intentry     00050
__Hmaintext                               maintext     00000
__HnvBANK0                                nvBANK0      00000
__HnvBANK2                                nvBANK2      00000
__HnvBANK3                                nvBANK3      00000
__Hpowerup                                powerup      00000
__Hram                                    ram          00000
__Hreset_vec                              reset_vec    00002
__Hsfr0                                   sfr0         00000
__Hsfr1                                   sfr1         00000
__Hsfr10                                  sfr10        00000
__Hsfr11                                  sfr11        00000
__Hsfr12                                  sfr12        00000
__Hsfr13                                  sfr13        00000
__Hsfr14                                  sfr14        00000
__Hsfr15                                  sfr15        00000
__Hsfr16                                  sfr16        00000
__Hsfr17                                  sfr17        00000
__Hsfr18                                  sfr18        00000
__Hsfr19                                  sfr19        00000
__Hsfr2                                   sfr2         00000
__Hsfr20                                  sfr20        00000
__Hsfr21                                  sfr21        00000
__Hsfr22                                  sfr22        00000
__Hsfr23                                  sfr23        00000
__Hsfr24                                  sfr24        00000
__Hsfr25                                  sfr25        00000
__Hsfr26                                  sfr26        00000
__Hsfr27                                  sfr27        00000
__Hsfr28                                  sfr28        00000
__Hsfr29                                  sfr29        00000
__Hsfr3                                   sfr3         00000
__Hsfr30                                  sfr30        00000
__Hsfr31                                  sfr31        00000
__Hsfr4                                   sfr4         00000
__Hsfr5                                   sfr5         00000
__Hsfr6                                   sfr6         00000
__Hsfr7                                   sfr7         00000
__Hsfr8                                   sfr8         00000
__Hsfr9                                   sfr9         00000
__Hspace_0                                (abs)        0800B
__Hspace_1                                (abs)        0025C
__Hspace_2                                (abs)        00000
__Hspace_3                                (abs)        00000
__Hstack                                  stack        00000
__Hstrings                                strings      00000
__Hstringtext1                            stringtext1  00000
__Hstringtext10                           stringtext10 00000
__Hstringtext11                           stringtext11 00000
__Hstringtext12                           stringtext12 00000
__Hstringtext13                           stringtext13 00000
__Hstringtext14                           stringtext14 00000
__Hstringtext15                           stringtext15 00000
__Hstringtext16                           stringtext16 00000
__Hstringtext17                           stringtext17 00000
__Hstringtext18                           stringtext18 00000
__Hstringtext19                           stringtext19 00000
__Hstringtext2                            stringtext2  00000
__Hstringtext20                           stringtext20 00000
__Hstringtext21                           stringtext21 00000
__Hstringtext22                           stringtext22 00000
__Hstringtext23                           stringtext23 00000
__Hstringtext24                           stringtext24 00000
__Hstringtext25                           stringtext25 00000
__Hstringtext26                           stringtext26 00000
__Hstringtext27                           stringtext27 00000
__Hstringtext28                           stringtext28 00000
__Hstringtext29                           stringtext29 00000
__Hstringtext3                            stringtext3  00000
__Hstringtext30                           stringtext30 00000
__Hstringtext31                           stringtext31 00000
__Hstringtext32                           stringtext32 00000
__Hstringtext33                           stringtext33 00000
__Hstringtext34                           stringtext34 00000
__Hstringtext35                           stringtext35 00000
__Hstringtext36                           stringtext36 00000
__Hstringtext37                           stringtext37 00000
__Hstringtext38                           stringtext38 00000
__Hstringtext39                           stringtext39 00000
__Hstringtext4                            stringtext4  00000
__Hstringtext40                           stringtext40 00000
__Hstringtext41                           stringtext41 00000
__Hstringtext42                           stringtext42 00000
__Hstringtext43                           stringtext43 00000
__Hstringtext44                           stringtext44 00000
__Hstringtext45                           stringtext45 00000
__Hstringtext46                           stringtext46 00000
__Hstringtext47                           stringtext47 00000
__Hstringtext48                           stringtext48 00000
__Hstringtext49                           stringtext49 00000
__Hstringtext5                            stringtext5  00000
__Hstringtext50                           stringtext50 00000
__Hstringtext51                           stringtext51 00000
__Hstringtext52                           stringtext52 00000
__Hstringtext53                           stringtext53 00000
__Hstringtext54                           stringtext54 00000
__Hstringtext55                           stringtext55 00000
__Hstringtext56                           stringtext56 00000
__Hstringtext57                           stringtext57 00000
__Hstringtext58                           stringtext58 00000
__Hstringtext59                           stringtext59 00000
__Hstringtext6                            stringtext6  00000
__Hstringtext60                           stringtext60 00000
__Hstringtext61                           stringtext61 00000
__Hstringtext7                            stringtext7  00000
__Hstringtext8                            stringtext8  00000
__Hstringtext9                            stringtext9  00000
__Htext                                   text         00000
__Labs1                                   abs1         00000
__Lbank0                                  bank0        00000
__Lbank1                                  bank1        00000
__Lbank10                                 bank10       00000
__Lbank11                                 bank11       00000
__Lbank12                                 bank12       00000
__Lbank13                                 bank13       00000
__Lbank14                                 bank14       00000
__Lbank15                                 bank15       00000
__Lbank16                                 bank16       00000
__Lbank17                                 bank17       00000
__Lbank18                                 bank18       00000
__Lbank19                                 bank19       00000
__Lbank2                                  bank2        00000
__Lbank20                                 bank20       00000
__Lbank21                                 bank21       00000
__Lbank22                                 bank22       00000
__Lbank23                                 bank23       00000
__Lbank24                                 bank24       00000
__Lbank25                                 bank25       00000
__Lbank26                                 bank26       00000
__Lbank27                                 bank27       00000
__Lbank28                                 bank28       00000
__Lbank29                                 bank29       00000
__Lbank3                                  bank3        00000
__Lbank30                                 bank30       00000
__Lbank31                                 bank31       00000
__Lbank4                                  bank4        00000
__Lbank5                                  bank5        00000
__Lbank6                                  bank6        00000
__Lbank7                                  bank7        00000
__Lbank8                                  bank8        00000
__Lbank9                                  bank9        00000
__Lbigram                                 bigram       00000
__LbssBANK0                               bssBANK0     00000
__LbssBANK1                               bssBANK1     00000
__LbssBANK2                               bssBANK2     00000
__LbssBANK3                               bssBANK3     00000
__LbssCOMMON                              bssCOMMON    00000
__Lcinit                                  cinit        00052
__Lclrtext                                clrtext      00000
__Lcode                                   code         00000
__Lcommon                                 common       00000
__Lconfig                                 config       08007
__LcstackBANK0                            cstackBANK0  00000
__LcstackBANK1                            cstackBANK1  00000
__LcstackBANK4                            cstackBANK4  00000
__LcstackCOMMON                           cstackCOMMON 00000
__LdataBANK0                              dataBANK0    00000
__LdataBANK1                              dataBANK1    00000
__LdataBANK2                              dataBANK2    00000
__LdataBANK4                              dataBANK4    00000
__Leeprom_data                            eeprom_data  00000
__Lend_init                               end_init     00050
__Lfunctab                                functab      00000
__LidataBANK0                             idataBANK0   00000
__LidataBANK1                             idataBANK1   00000
__LidataBANK2                             idataBANK2   00000
__LidataBANK4                             idataBANK4   00000
__Lidloc                                  idloc        08000
__Linit                                   init         00050
__Linittext                               inittext     00000
__Lintentry                               intentry     00004
__Lmaintext                               maintext     00000
__LnvBANK0                                nvBANK0      00000
__LnvBANK2                                nvBANK2      00000
__LnvBANK3                                nvBANK3      00000
__Lpowerup                                powerup      00000
__Lram                                    ram          00000
__Lreset_vec                              reset_vec    00000
__Lsfr0                                   sfr0         00000
__Lsfr1                                   sfr1         00000
__Lsfr10                                  sfr10        00000
__Lsfr11                                  sfr11        00000
__Lsfr12                                  sfr12        00000
__Lsfr13                                  sfr13        00000
__Lsfr14                                  sfr14        00000
__Lsfr15                                  sfr15        00000
__Lsfr16                                  sfr16        00000
__Lsfr17                                  sfr17        00000
__Lsfr18                                  sfr18        00000
__Lsfr19                                  sfr19        00000
__Lsfr2                                   sfr2         00000
__Lsfr20                                  sfr20        00000
__Lsfr21                                  sfr21        00000
__Lsfr22                                  sfr22        00000
__Lsfr23                                  sfr23        00000
__Lsfr24                                  sfr24        00000
__Lsfr25                                  sfr25        00000
__Lsfr26                                  sfr26        00000
__Lsfr27                                  sfr27        00000
__Lsfr28                                  sfr28        00000
__Lsfr29                                  sfr29        00000
__Lsfr3                                   sfr3         00000
__Lsfr30                                  sfr30        00000
__Lsfr31                                  sfr31        00000
__Lsfr4                                   sfr4         00000
__Lsfr5                                   sfr5         00000
__Lsfr6                                   sfr6         00000
__Lsfr7                                   sfr7         00000
__Lsfr8                                   sfr8         00000
__Lsfr9                                   sfr9         00000
__Lspace_0                                (abs)        00000
__Lspace_1                                (abs)        00000
__Lspace_2                                (abs)        00000
__Lspace_3                                (abs)        00000
__Lstack                                  stack        00000
__Lstrings                                strings      00000
__Lstringtext1                            stringtext1  00000
__Lstringtext10                           stringtext10 00000
__Lstringtext11                           stringtext11 00000
__Lstringtext12                           stringtext12 00000
__Lstringtext13                           stringtext13 00000
__Lstringtext14                           stringtext14 00000
__Lstringtext15                           stringtext15 00000
__Lstringtext16                           stringtext16 00000
__Lstringtext17                           stringtext17 00000
__Lstringtext18                           stringtext18 00000
__Lstringtext19                           stringtext19 00000
__Lstringtext2                            stringtext2  00000
__Lstringtext20                           stringtext20 00000
__Lstringtext21                           stringtext21 00000
__Lstringtext22                           stringtext22 00000
__Lstringtext23                           stringtext23 00000
__Lstringtext24                           stringtext24 00000
__Lstringtext25                           stringtext25 00000
__Lstringtext26                           stringtext26 00000
__Lstringtext27                           stringtext27 00000
__Lstringtext28                           stringtext28 00000
__Lstringtext29                           stringtext29 00000
__Lstringtext3                            stringtext3  00000
__Lstringtext30                           stringtext30 00000
__Lstringtext31                           stringtext31 00000
__Lstringtext32                           stringtext32 00000
__Lstringtext33                           stringtext33 00000
__Lstringtext34                           stringtext34 00000
__Lstringtext35                           stringtext35 00000
__Lstringtext36                           stringtext36 00000
__Lstringtext37                           stringtext37 00000
__Lstringtext38                           stringtext38 00000
__Lstringtext39                           stringtext39 00000
__Lstringtext4                            stringtext4  00000
__Lstringtext40                           stringtext40 00000
__Lstringtext41                           stringtext41 00000
__Lstringtext42                           stringtext42 00000
__Lstringtext43                           stringtext43 00000
__Lstringtext44                           stringtext44 00000
__Lstringtext45                           stringtext45 00000
__Lstringtext46                           stringtext46 00000
__Lstringtext47                           stringtext47 00000
__Lstringtext48                           stringtext48 00000
__Lstringtext49                           stringtext49 00000
__Lstringtext5                            stringtext5  00000
__Lstringtext50                           stringtext50 00000
__Lstringtext51                           stringtext51 00000
__Lstringtext52                           stringtext52 00000
__Lstringtext53                           stringtext53 00000
__Lstringtext54                           stringtext54 00000
__Lstringtext55                           stringtext55 00000
__Lstringtext56                           stringtext56 00000
__Lstringtext57                           stringtext57 00000
__Lstringtext58                           stringtext58 00000
__Lstringtext59                           stringtext59 00000
__Lstringtext6                            stringtext6  00000
__Lstringtext60                           stringtext60 00000
__Lstringtext61                           stringtext61 00000
__Lstringtext7                            stringtext7  00000
__Lstringtext8                            stringtext8  00000
__Lstringtext9                            stringtext9  00000
__Ltext                                   text         00000
__S0                                      (abs)        0800B
__S1                                      (abs)        0025C
__S2                                      (abs)        00000
__S3                                      (abs)        00000
___awdiv                                  text99       01CE4
___awdiv@counter                          cstackBANK0  00036
___awdiv@dividend                         cstackBANK0  00033
___awdiv@divisor                          cstackBANK0  00031
___awdiv@quotient                         cstackBANK0  00038
___awdiv@sign                             cstackBANK0  00037
___awtoft                                 text35       026B7
___awtoft@c                               cstackBANK0  00039
___awtoft@sign                            cstackBANK0  0003E
___ftadd                                  text34       00DB5
___ftadd@exp1                             cstackBANK1  000AE
___ftadd@exp2                             cstackBANK1  000AD
___ftadd@f1                               cstackBANK1  000A6
___ftadd@f2                               cstackBANK1  000A9
___ftadd@sign                             cstackBANK1  000AC
___ftmul                                  text33       00CD4
___ftmul@cntr                             cstackBANK1  000A4
___ftmul@exp                              cstackBANK1  000A0
___ftmul@f1                               cstackBANK0  0003F
___ftmul@f2                               cstackBANK0  00042
___ftmul@f3_as_product                    cstackBANK1  000A1
___ftmul@sign                             cstackBANK1  000A5
___ftpack                                 text36       0147B
___ftpack@arg                             cstackBANK0  00031
___ftpack@exp                             cstackBANK0  00034
___ftpack@sign                            cstackBANK0  00035
___fttol                                  text32       008B1
___fttol@exp1                             cstackBANK1  000BC
___fttol@f1                               cstackBANK1  000AF
___fttol@lval                             cstackBANK1  000B8
___fttol@sign1                            cstackBANK1  000B7
___int_sp                                 stack        00000
___latbits                                (abs)        00003
___lldiv                                  text62       01D88
___lldiv@counter                          cstackBANK0  0003E
___lldiv@dividend                         cstackBANK0  00035
___lldiv@divisor                          cstackBANK0  00031
___lldiv@quotient                         cstackBANK0  0003A
___llmod                                  text61       01A06
___llmod@counter                          cstackBANK0  00048
___llmod@dividend                         cstackBANK0  00043
___llmod@divisor                          cstackBANK0  0003F
___sp                                     stack        00000
___wmul                                   text10       02582
___wmul@multiplicand                      cstackBANK0  00033
___wmul@multiplier                        cstackBANK0  00031
___wmul@product                           cstackBANK0  00035
__end_of_EUSART_Initialize                text116      02531
__end_of_EUSART_Read                      text117      02655
__end_of_EUSART_Receive_ISR               text164      02582
__end_of_EUSART_Transmit_ISR              text163      025D9
__end_of_EUSART_Write                     text60       027B1
__end_of_INTERRUPT_InterruptManager       intentry     00050
__end_of_LED_getData                      text50       01EE7
__end_of_LED_readConfig                   text49       0278C
__end_of_LED_setBrightnessRange           text48       00CD4
__end_of_LED_testComm                     text47       008B1
__end_of_LED_test_openshort               text46       01549
__end_of_LEDpower                         stringtext7  02A71
__end_of_LEDsOn                           text103      026B7
__end_of_LEDsPwr                          text25       0147B
__end_of_OSCILLATOR_Initialize            text115      023B6
__end_of_PIN_MANAGER_Initialize           text114      01954
__end_of_PMD_Initialize                   text113      02336
__end_of_SYSTEM_Initialize                text107      024D2
__end_of_TMR0_DefaultInterruptHandler     text156      00838
__end_of_TMR0_ISR                         text155      02447
__end_of_TMR0_Initialize                  text111      024BD
__end_of_TMR0_Load8bitPeriod              text37       022EF
__end_of_TMR0_RANGE                       stringtext6  02A69
__end_of_TMR0_SetInterruptHandler         text112      02388
__end_of_TMR0_StartTimer                  text102      0228A
__end_of_TMR0_StopTimer                   text162      0226C
__end_of_TMR0_Write8bitTimer              text161      022DB
__end_of_TMR2_DefaultInterruptHandler     text152      0237F
__end_of_TMR2_ISR                         text151      02454
__end_of_TMR2_Initialize                  text109      02496
__end_of_TMR2_LoadPeriodRegister          text30       022F4
__end_of_TMR2_RANGE                       stringtext5  02A66
__end_of_TMR2_SetInterruptHandler         text110      02391
__end_of_TMR2_StartTimer                  text101      0228D
__end_of_TMR2_StopTimer                   text154      0226F
__end_of_TMR2_WriteTimer                  text153      022E0
__end_of_WDT_Initialize                   text108      022CA
__end_of___awdiv                          text99       01D36
__end_of___awtoft                         text35       026D9
__end_of___ftadd                          text34       00ECF
__end_of___ftmul                          text33       00DB5
__end_of___ftpack                         text36       014E0
__end_of___fttol                          text32       00938
__end_of___lldiv                          text62       01DDB
__end_of___llmod                          text61       01A49
__end_of___wmul                           text10       0259E
__end_of__initialization                  cinit        000BC
__end_of_atoi                             text8        01629
__end_of_calcHeaterPins                   text100      01800
__end_of_commCheck                        text45       00B1B
__end_of_doAbsMove                        text52       00370
__end_of_doMove                           text53       009C1
__end_of_doRelMove                        text51       01000
__end_of_do_I2C_DO_ACK                    text75       0235E
__end_of_do_I2C_DO_ADDRESS_NACK           text72       007FE
__end_of_do_I2C_DO_NACK_RESTART           text73       0236E
__end_of_do_I2C_DO_NACK_STOP              text74       02366
__end_of_do_I2C_IDLE                      text83       0239A
__end_of_do_I2C_RCEN                      text76       023C0
__end_of_do_I2C_RESET                     text84       023E9
__end_of_do_I2C_RX                        text70       01AD0
__end_of_do_I2C_SEND_ADR_READ             text78       02422
__end_of_do_I2C_SEND_ADR_WRITE            text77       023F4
__end_of_do_I2C_SEND_RESTART              text80       0234E
__end_of_do_I2C_SEND_RESTART_READ         text82       0233E
__end_of_do_I2C_SEND_RESTART_WRITE        text81       02346
__end_of_do_I2C_SEND_STOP                 text79       02356
__end_of_do_I2C_TX                        text71       01E8C
__end_of_do_I2C_TX_EMPTY                  text85       01891
__end_of_dpowers                          stringtext4  02828
__end_of_drv_address                      stringtext8  02A78
__end_of_drv_fifo_sine                    stringtext1  010F4
__end_of_drv_init                         text12       02000
__end_of_drv_read                         text56       01B17
__end_of_drv_reset                        text18       023D4
__end_of_drv_sine                         stringtext3  013CC
__end_of_drv_write                        text57       02768
__end_of_drv_write_DC                     text54       01CE4
__end_of_execCmd                          text19       0050E
__end_of_fifo_check                       text55       02484
__end_of_getActive                        text44       01BF9
__end_of_getMotionStatus                  text43       026FC
__end_of_getMoveMask                      text42       01C46
__end_of_getPosition                      text41       01A06
__end_of_i2c1_driver_TXData               text88       0230C
__end_of_i2c1_driver_clearBusCollision    text150      02272
__end_of_i2c1_driver_getRXData            text89       0229C
__end_of_i2c1_driver_isNACK               text87       01838
__end_of_i2c1_driver_open                 text17       023DE
__end_of_i2c1_driver_resetBus             text91       00801
__end_of_i2c1_driver_restart              text96       02293
__end_of_i2c1_driver_sendACK              text97       022CE
__end_of_i2c1_driver_sendNACK             text90       022D2
__end_of_i2c1_driver_setBusCollisionISR   text16       023A3
__end_of_i2c1_driver_setI2cISR            text15       023AC
__end_of_i2c1_driver_start                text98       02290
__end_of_i2c1_driver_startRX              text92       02299
__end_of_i2c1_driver_stop                 text95       02296
__end_of_i2c_ISR                          text68       027D7
__end_of_i2c_busCollisionISR              text149      02275
__end_of_i2c_masterOperation              text64       02744
__end_of_i2c_open                         text14       01BAC
__end_of_i2c_poller                       text66       0240A
__end_of_i2c_setAddress                   text13       02376
__end_of_i2c_setBuffer                    text63       024E7
__end_of_isdigit                          text9        02463
__end_of_main                             maintext     015B8
__end_of_main_initialize                  text11       00BF6
__end_of_mssp1_IRQisEnabled               text65       023CA
__end_of_mssp1_clearIRQ                   text69       022A2
__end_of_mssp1_setIRQ                     text86       0229F
__end_of_mssp1_waitForEvent               text67       023FF
__end_of_parseCmd                         text1        006A1
__end_of_printf                           text58       007D3
__end_of_putch                            text59       02312
__end_of_returnReset                      text93       02306
__end_of_returnStop                       text94       02300
__end_of_send_2bytes_latchless_IK         text106      018C1
__end_of_send_2length_2bytes_IK           text104      02517
__end_of_send_last_2bytes_IK              text105      01E33
__end_of_setActive                        text40       01787
__end_of_setDrvGain                       text39       01A8C
__end_of_setDrvPeak                       text38       024A9
__end_of_setDrvPiezoOnTime                text31       01F42
__end_of_setHeaterPostTime                text29       01D88
__end_of_setHeaterPreTime                 text28       01F9D
__end_of_setHeaterToggle                  text27       00A54
__end_of_setLEDBrightnessRange            text26       025F7
__end_of_setLEDPwr                        text24       02615
__end_of_setMoveMask                      text23       0169C
__end_of_startAbsMove                     text22       025BB
__end_of_startRelMove                     text21       02566
__end_of_strchr                           text5        0254B
__end_of_strcspn                          text4        018F1
__end_of_stricmp                          text6        01988
__end_of_strspn                           text3        01921
__end_of_strtok                           text2        01417
__end_of_toupper                          text7        02473
__end_of_zeroPosition                     text20       01711
__end_ofdrv2665@drv_fifo_sine             stringtext9  011E8
__end_ofdrv2665@drv_sine                  stringtext2  012DA
__end_ofi1_LEDsOn                         text157      02696
__end_ofi1_do_I2C_DO_ACK                  text126      022BE
__end_ofi1_do_I2C_DO_ADDRESS_NACK         text123      02720
__end_ofi1_do_I2C_DO_NACK_RESTART         text124      022C6
__end_ofi1_do_I2C_DO_NACK_STOP            text125      022C2
__end_ofi1_do_I2C_IDLE                    text134      022EA
__end_ofi1_do_I2C_RCEN                    text127      022FA
__end_ofi1_do_I2C_RESET                   text135      0231F
__end_ofi1_do_I2C_RX                      text121      019C7
__end_ofi1_do_I2C_SEND_ADR_READ           text129      0232E
__end_ofi1_do_I2C_SEND_ADR_WRITE          text128      02326
__end_ofi1_do_I2C_SEND_RESTART            text131      022B6
__end_ofi1_do_I2C_SEND_RESTART_READ       text133      022AE
__end_ofi1_do_I2C_SEND_RESTART_WRITE      text132      022B2
__end_ofi1_do_I2C_SEND_STOP               text130      022BA
__end_ofi1_do_I2C_TX                      text122      01C94
__end_ofi1_do_I2C_TX_EMPTY                text136      01862
__end_ofi1_i2c1_driver_TXData             text139      022E5
__end_ofi1_i2c1_driver_getRXData          text140      02281
__end_ofi1_i2c1_driver_isNACK             text138      02416
__end_ofi1_i2c1_driver_resetBus           text142      0182B
__end_ofi1_i2c1_driver_restart            text147      02278
__end_ofi1_i2c1_driver_sendACK            text148      022A6
__end_ofi1_i2c1_driver_sendNACK           text141      022AA
__end_ofi1_i2c1_driver_startRX            text143      0227E
__end_ofi1_i2c1_driver_stop               text146      0227B
__end_ofi1_i2c_ISR                        text119      02635
__end_ofi1_mssp1_clearIRQ                 text120      02287
__end_ofi1_mssp1_setIRQ                   text137      02284
__end_ofi1_returnReset                    text144      00004
__end_ofi1_returnStop                     text145      02269
__end_ofi1_send_2bytes_latchless_IK       text160      02800
__end_ofi1_send_2length_2bytes_IK         text158      024FF
__end_ofi1_send_last_2bytes_IK            text159      01B60
__end_ofsin@coeff_a                       stringtext10 0296A
__end_ofsin@coeff_b                       stringtext11 029AF
__initialization                          cinit        00052
__pbssBANK0                               bssBANK0     0004E
__pbssBANK1                               bssBANK1     000D9
__pbssBANK2                               bssBANK2     00120
__pbssBANK3                               bssBANK3     001A0
__pbssBIGRAM                              (abs)        02790
__pbssCOMMON                              bssCOMMON    0007D
__pcstackBANK0                            cstackBANK0  00020
__pcstackBANK1                            cstackBANK1  000A0
__pcstackBANK4                            cstackBANK4  00240
__pcstackCOMMON                           cstackCOMMON 00070
__pdataBANK0                              dataBANK0    0005A
__pdataBANK1                              dataBANK1    000E9
__pdataBANK2                              dataBANK2    0016E
__pdataBANK4                              dataBANK4    00220
__pidataBANK0                             idataBANK0   022D2
__pidataBANK1                             idataBANK1   02312
__pidataBANK2                             idataBANK2   007FE
__pidataBANK4                             idataBANK4   02655
__pintentry                               intentry     00004
__pmaintext                               maintext     01549
__pnvBANK0                                nvBANK0      0005E
__pnvBANK2                                nvBANK2      0016C
__pnvBANK3                                nvBANK3      001D9
__pstringtext1                            stringtext1  01000
__pstringtext10                           stringtext10 0295B
__pstringtext11                           stringtext11 029A3
__pstringtext12                           stringtext12 02828
__pstringtext13                           stringtext13 02847
__pstringtext14                           stringtext14 02865
__pstringtext15                           stringtext15 02881
__pstringtext16                           stringtext16 0289C
__pstringtext17                           stringtext17 028B6
__pstringtext18                           stringtext18 028CF
__pstringtext19                           stringtext19 028E6
__pstringtext2                            stringtext2  011E8
__pstringtext20                           stringtext20 028F8
__pstringtext21                           stringtext21 02909
__pstringtext22                           stringtext22 0291A
__pstringtext23                           stringtext23 0292B
__pstringtext24                           stringtext24 0293B
__pstringtext25                           stringtext25 0294B
__pstringtext26                           stringtext26 0296A
__pstringtext27                           stringtext27 02979
__pstringtext28                           stringtext28 02988
__pstringtext29                           stringtext29 02996
__pstringtext3                            stringtext3  012DA
__pstringtext30                           stringtext30 029AF
__pstringtext31                           stringtext31 029BB
__pstringtext32                           stringtext32 029C6
__pstringtext33                           stringtext33 029D1
__pstringtext34                           stringtext34 029DA
__pstringtext35                           stringtext35 029E3
__pstringtext36                           stringtext36 029EB
__pstringtext37                           stringtext37 029F3
__pstringtext38                           stringtext38 029FB
__pstringtext39                           stringtext39 02A03
__pstringtext4                            stringtext4  02800
__pstringtext40                           stringtext40 02A0B
__pstringtext41                           stringtext41 02A13
__pstringtext42                           stringtext42 02A1B
__pstringtext43                           stringtext43 02A23
__pstringtext44                           stringtext44 02A2A
__pstringtext45                           stringtext45 02A31
__pstringtext46                           stringtext46 02A36
__pstringtext47                           stringtext47 02A3B
__pstringtext48                           stringtext48 02A40
__pstringtext49                           stringtext49 02A45
__pstringtext5                            stringtext5  02A63
__pstringtext50                           stringtext50 02A4A
__pstringtext51                           stringtext51 02A4F
__pstringtext52                           stringtext52 02A53
__pstringtext53                           stringtext53 02A57
__pstringtext54                           stringtext54 02A5B
__pstringtext55                           stringtext55 02A5F
__pstringtext56                           stringtext56 02A69
__pstringtext57                           stringtext57 02A6C
__pstringtext58                           stringtext58 02A71
__pstringtext59                           stringtext59 02A73
__pstringtext6                            stringtext6  02A66
__pstringtext60                           stringtext60 02A75
__pstringtext61                           stringtext61 00000
__pstringtext7                            stringtext7  02A6F
__pstringtext8                            stringtext8  02A77
__pstringtext9                            stringtext9  010F4
__pswtext1                                swtext1      01800
__ptext1                                  text1        0050E
__ptext10                                 text10       02582
__ptext100                                text100      01787
__ptext101                                text101      0228A
__ptext102                                text102      02287
__ptext103                                text103      02696
__ptext104                                text104      024FF
__ptext105                                text105      01DDB
__ptext106                                text106      01891
__ptext107                                text107      024BD
__ptext108                                text108      022C6
__ptext109                                text109      02484
__ptext11                                 text11       00B1B
__ptext110                                text110      02388
__ptext111                                text111      024A9
__ptext112                                text112      0237F
__ptext113                                text113      0232E
__ptext114                                text114      01921
__ptext115                                text115      023AC
__ptext116                                text116      02517
__ptext117                                text117      02635
__ptext119                                text119      02615
__ptext12                                 text12       01F9D
__ptext120                                text120      02284
__ptext121                                text121      01988
__ptext122                                text122      01C46
__ptext123                                text123      026FC
__ptext124                                text124      022C2
__ptext125                                text125      022BE
__ptext126                                text126      022BA
__ptext127                                text127      022F4
__ptext128                                text128      0231F
__ptext129                                text129      02326
__ptext13                                 text13       0236E
__ptext130                                text130      022B6
__ptext131                                text131      022B2
__ptext132                                text132      022AE
__ptext133                                text133      022AA
__ptext134                                text134      022E5
__ptext135                                text135      02318
__ptext136                                text136      01838
__ptext137                                text137      02281
__ptext138                                text138      0240A
__ptext139                                text139      022E0
__ptext14                                 text14       01B60
__ptext140                                text140      0227E
__ptext141                                text141      022A6
__ptext142                                text142      0182A
__ptext143                                text143      0227B
__ptext144                                text144      00002
__ptext145                                text145      02267
__ptext146                                text146      02278
__ptext147                                text147      02275
__ptext148                                text148      022A2
__ptext149                                text149      02272
__ptext15                                 text15       023A3
__ptext150                                text150      0226F
__ptext151                                text151      02447
__ptext152                                text152      02376
__ptext153                                text153      022DB
__ptext154                                text154      0226C
__ptext155                                text155      0243A
__ptext156                                text156      00801
__ptext157                                text157      02675
__ptext158                                text158      024E7
__ptext159                                text159      01B17
__ptext16                                 text16       0239A
__ptext160                                text160      027D7
__ptext161                                text161      022D6
__ptext162                                text162      02269
__ptext163                                text163      025BB
__ptext164                                text164      02566
__ptext17                                 text17       023D4
__ptext18                                 text18       023CA
__ptext19                                 text19       00370
__ptext2                                  text2        013CC
__ptext20                                 text20       0169C
__ptext21                                 text21       0254B
__ptext22                                 text22       0259E
__ptext23                                 text23       01629
__ptext24                                 text24       025F7
__ptext25                                 text25       01417
__ptext26                                 text26       025D9
__ptext27                                 text27       009C1
__ptext28                                 text28       01F42
__ptext29                                 text29       01D36
__ptext3                                  text3        018F1
__ptext30                                 text30       022EF
__ptext31                                 text31       01EE7
__ptext32                                 text32       008B1
__ptext33                                 text33       00CD4
__ptext34                                 text34       00DB5
__ptext35                                 text35       026B7
__ptext36                                 text36       0147B
__ptext37                                 text37       022EA
__ptext38                                 text38       02496
__ptext39                                 text39       01A49
__ptext4                                  text4        018C1
__ptext40                                 text40       01711
__ptext41                                 text41       019C7
__ptext42                                 text42       01BF9
__ptext43                                 text43       026D9
__ptext44                                 text44       01BAC
__ptext45                                 text45       00A54
__ptext46                                 text46       014E0
__ptext47                                 text47       00838
__ptext48                                 text48       00BF6
__ptext49                                 text49       02768
__ptext5                                  text5        02531
__ptext50                                 text50       01E8C
__ptext51                                 text51       00ECF
__ptext52                                 text52       000C0
__ptext53                                 text53       00938
__ptext54                                 text54       01C94
__ptext55                                 text55       02473
__ptext56                                 text56       01AD0
__ptext57                                 text57       02744
__ptext58                                 text58       006A1
__ptext59                                 text59       0230C
__ptext6                                  text6        01954
__ptext60                                 text60       0278C
__ptext61                                 text61       01A06
__ptext62                                 text62       01D88
__ptext63                                 text63       024D2
__ptext64                                 text64       02720
__ptext65                                 text65       023C0
__ptext66                                 text66       023FF
__ptext67                                 text67       023F4
__ptext68                                 text68       027B1
__ptext69                                 text69       0229F
__ptext7                                  text7        02463
__ptext70                                 text70       01A8C
__ptext71                                 text71       01E33
__ptext72                                 text72       007D3
__ptext73                                 text73       02366
__ptext74                                 text74       0235E
__ptext75                                 text75       02356
__ptext76                                 text76       023B6
__ptext77                                 text77       023E9
__ptext78                                 text78       02416
__ptext79                                 text79       0234E
__ptext8                                  text8        015B8
__ptext80                                 text80       02346
__ptext81                                 text81       0233E
__ptext82                                 text82       02336
__ptext83                                 text83       02391
__ptext84                                 text84       023DE
__ptext85                                 text85       01862
__ptext86                                 text86       0229C
__ptext87                                 text87       0182B
__ptext88                                 text88       02306
__ptext89                                 text89       02299
__ptext9                                  text9        02454
__ptext90                                 text90       022CE
__ptext91                                 text91       00800
__ptext92                                 text92       02296
__ptext93                                 text93       02300
__ptext94                                 text94       022FA
__ptext95                                 text95       02293
__ptext96                                 text96       02290
__ptext97                                 text97       022CA
__ptext98                                 text98       0228D
__ptext99                                 text99       01CE4
__size_of_EUSART_Initialize               (abs)        00000
__size_of_EUSART_Read                     (abs)        00000
__size_of_EUSART_Receive_ISR              (abs)        00000
__size_of_EUSART_Transmit_ISR             (abs)        00000
__size_of_EUSART_Write                    (abs)        00000
__size_of_INTERRUPT_InterruptManager      (abs)        00000
__size_of_LED_getData                     (abs)        00000
__size_of_LED_readConfig                  (abs)        00000
__size_of_LED_setBrightnessRange          (abs)        00000
__size_of_LED_testComm                    (abs)        00000
__size_of_LED_test_openshort              (abs)        00000
__size_of_LEDsOn                          (abs)        00000
__size_of_LEDsPwr                         (abs)        00000
__size_of_OSCILLATOR_Initialize           (abs)        00000
__size_of_PIN_MANAGER_Initialize          (abs)        00000
__size_of_PMD_Initialize                  (abs)        00000
__size_of_SYSTEM_Initialize               (abs)        00000
__size_of_TMR0_DefaultInterruptHandler    (abs)        00000
__size_of_TMR0_ISR                        (abs)        00000
__size_of_TMR0_Initialize                 (abs)        00000
__size_of_TMR0_Load8bitPeriod             (abs)        00000
__size_of_TMR0_SetInterruptHandler        (abs)        00000
__size_of_TMR0_StartTimer                 (abs)        00000
__size_of_TMR0_StopTimer                  (abs)        00000
__size_of_TMR0_Write8bitTimer             (abs)        00000
__size_of_TMR2_DefaultInterruptHandler    (abs)        00000
__size_of_TMR2_ISR                        (abs)        00000
__size_of_TMR2_Initialize                 (abs)        00000
__size_of_TMR2_LoadPeriodRegister         (abs)        00000
__size_of_TMR2_SetInterruptHandler        (abs)        00000
__size_of_TMR2_StartTimer                 (abs)        00000
__size_of_TMR2_StopTimer                  (abs)        00000
__size_of_TMR2_WriteTimer                 (abs)        00000
__size_of_WDT_Initialize                  (abs)        00000
__size_of___awdiv                         (abs)        00000
__size_of___awtoft                        (abs)        00000
__size_of___ftadd                         (abs)        00000
__size_of___ftmul                         (abs)        00000
__size_of___ftpack                        (abs)        00000
__size_of___fttol                         (abs)        00000
__size_of___lldiv                         (abs)        00000
__size_of___llmod                         (abs)        00000
__size_of___wmul                          (abs)        00000
__size_of_atoi                            (abs)        00000
__size_of_calcHeaterPins                  (abs)        00000
__size_of_commCheck                       (abs)        00000
__size_of_doAbsMove                       (abs)        00000
__size_of_doMove                          (abs)        00000
__size_of_doRelMove                       (abs)        00000
__size_of_do_I2C_DO_ACK                   (abs)        00000
__size_of_do_I2C_DO_ADDRESS_NACK          (abs)        00000
__size_of_do_I2C_DO_NACK_RESTART          (abs)        00000
__size_of_do_I2C_DO_NACK_STOP             (abs)        00000
__size_of_do_I2C_IDLE                     (abs)        00000
__size_of_do_I2C_RCEN                     (abs)        00000
__size_of_do_I2C_RESET                    (abs)        00000
__size_of_do_I2C_RX                       (abs)        00000
__size_of_do_I2C_SEND_ADR_READ            (abs)        00000
__size_of_do_I2C_SEND_ADR_WRITE           (abs)        00000
__size_of_do_I2C_SEND_RESTART             (abs)        00000
__size_of_do_I2C_SEND_RESTART_READ        (abs)        00000
__size_of_do_I2C_SEND_RESTART_WRITE       (abs)        00000
__size_of_do_I2C_SEND_STOP                (abs)        00000
__size_of_do_I2C_TX                       (abs)        00000
__size_of_do_I2C_TX_EMPTY                 (abs)        00000
__size_of_drv_init                        (abs)        00000
__size_of_drv_read                        (abs)        00000
__size_of_drv_reset                       (abs)        00000
__size_of_drv_write                       (abs)        00000
__size_of_drv_write_DC                    (abs)        00000
__size_of_execCmd                         (abs)        00000
__size_of_fifo_check                      (abs)        00000
__size_of_getActive                       (abs)        00000
__size_of_getMotionStatus                 (abs)        00000
__size_of_getMoveMask                     (abs)        00000
__size_of_getPosition                     (abs)        00000
__size_of_i2c1_driver_TXData              (abs)        00000
__size_of_i2c1_driver_clearBusCollision   (abs)        00000
__size_of_i2c1_driver_getRXData           (abs)        00000
__size_of_i2c1_driver_isNACK              (abs)        00000
__size_of_i2c1_driver_open                (abs)        00000
__size_of_i2c1_driver_resetBus            (abs)        00000
__size_of_i2c1_driver_restart             (abs)        00000
__size_of_i2c1_driver_sendACK             (abs)        00000
__size_of_i2c1_driver_sendNACK            (abs)        00000
__size_of_i2c1_driver_setBusCollisionISR  (abs)        00000
__size_of_i2c1_driver_setI2cISR           (abs)        00000
__size_of_i2c1_driver_start               (abs)        00000
__size_of_i2c1_driver_startRX             (abs)        00000
__size_of_i2c1_driver_stop                (abs)        00000
__size_of_i2c_ISR                         (abs)        00000
__size_of_i2c_busCollisionISR             (abs)        00000
__size_of_i2c_masterOperation             (abs)        00000
__size_of_i2c_open                        (abs)        00000
__size_of_i2c_poller                      (abs)        00000
__size_of_i2c_setAddress                  (abs)        00000
__size_of_i2c_setBuffer                   (abs)        00000
__size_of_isdigit                         (abs)        00000
__size_of_main                            (abs)        00000
__size_of_main_initialize                 (abs)        00000
__size_of_mssp1_IRQisEnabled              (abs)        00000
__size_of_mssp1_clearIRQ                  (abs)        00000
__size_of_mssp1_setIRQ                    (abs)        00000
__size_of_mssp1_waitForEvent              (abs)        00000
__size_of_parseCmd                        (abs)        00000
__size_of_printf                          (abs)        00000
__size_of_putch                           (abs)        00000
__size_of_returnReset                     (abs)        00000
__size_of_returnStop                      (abs)        00000
__size_of_send_2bytes_latchless_IK        (abs)        00000
__size_of_send_2length_2bytes_IK          (abs)        00000
__size_of_send_last_2bytes_IK             (abs)        00000
__size_of_setActive                       (abs)        00000
__size_of_setDrvGain                      (abs)        00000
__size_of_setDrvPeak                      (abs)        00000
__size_of_setDrvPiezoOnTime               (abs)        00000
__size_of_setHeaterPostTime               (abs)        00000
__size_of_setHeaterPreTime                (abs)        00000
__size_of_setHeaterToggle                 (abs)        00000
__size_of_setLEDBrightnessRange           (abs)        00000
__size_of_setLEDPwr                       (abs)        00000
__size_of_setMoveMask                     (abs)        00000
__size_of_startAbsMove                    (abs)        00000
__size_of_startRelMove                    (abs)        00000
__size_of_strchr                          (abs)        00000
__size_of_strcspn                         (abs)        00000
__size_of_stricmp                         (abs)        00000
__size_of_strspn                          (abs)        00000
__size_of_strtok                          (abs)        00000
__size_of_toupper                         (abs)        00000
__size_of_zeroPosition                    (abs)        00000
__size_ofi1_LEDsOn                        (abs)        00000
__size_ofi1_do_I2C_DO_ACK                 (abs)        00000
__size_ofi1_do_I2C_DO_ADDRESS_NACK        (abs)        00000
__size_ofi1_do_I2C_DO_NACK_RESTART        (abs)        00000
__size_ofi1_do_I2C_DO_NACK_STOP           (abs)        00000
__size_ofi1_do_I2C_IDLE                   (abs)        00000
__size_ofi1_do_I2C_RCEN                   (abs)        00000
__size_ofi1_do_I2C_RESET                  (abs)        00000
__size_ofi1_do_I2C_RX                     (abs)        00000
__size_ofi1_do_I2C_SEND_ADR_READ          (abs)        00000
__size_ofi1_do_I2C_SEND_ADR_WRITE         (abs)        00000
__size_ofi1_do_I2C_SEND_RESTART           (abs)        00000
__size_ofi1_do_I2C_SEND_RESTART_READ      (abs)        00000
__size_ofi1_do_I2C_SEND_RESTART_WRITE     (abs)        00000
__size_ofi1_do_I2C_SEND_STOP              (abs)        00000
__size_ofi1_do_I2C_TX                     (abs)        00000
__size_ofi1_do_I2C_TX_EMPTY               (abs)        00000
__size_ofi1_i2c1_driver_TXData            (abs)        00000
__size_ofi1_i2c1_driver_getRXData         (abs)        00000
__size_ofi1_i2c1_driver_isNACK            (abs)        00000
__size_ofi1_i2c1_driver_resetBus          (abs)        00000
__size_ofi1_i2c1_driver_restart           (abs)        00000
__size_ofi1_i2c1_driver_sendACK           (abs)        00000
__size_ofi1_i2c1_driver_sendNACK          (abs)        00000
__size_ofi1_i2c1_driver_startRX           (abs)        00000
__size_ofi1_i2c1_driver_stop              (abs)        00000
__size_ofi1_i2c_ISR                       (abs)        00000
__size_ofi1_mssp1_clearIRQ                (abs)        00000
__size_ofi1_mssp1_setIRQ                  (abs)        00000
__size_ofi1_returnReset                   (abs)        00000
__size_ofi1_returnStop                    (abs)        00000
__size_ofi1_send_2bytes_latchless_IK      (abs)        00000
__size_ofi1_send_2length_2bytes_IK        (abs)        00000
__size_ofi1_send_last_2bytes_IK           (abs)        00000
_absCommand                               bssBANK0     0004E
_activeMask                               bssBANK1     000DD
_atoi                                     text8        015B8
_calcHeaterPins                           text100      01787
_cmdRead                                  bssBANK2     00164
_cmd_struct                               bssBANK3     001B0
_commCheck                                text45       00A54
_currentPositions_steps                   (abs)        02790
_demoHeaterToggle_bot                     bssBANK2     00142
_demoHeaterToggle_top                     bssBANK2     00146
_demoLong                                 dataBANK0    0005A
_doAbsMove                                text52       000C0
_doMove                                   text53       00938
_doRelMove                                text51       00ECF
_do_I2C_DO_ACK                            text75       02356
_do_I2C_DO_ACK$intlevel0                  text75       0235A
_do_I2C_DO_ADDRESS_NACK                   text72       007D3
_do_I2C_DO_ADDRESS_NACK$intlevel0         text72       007D7
_do_I2C_DO_NACK_RESTART                   text73       02366
_do_I2C_DO_NACK_RESTART$intlevel0         text73       0236A
_do_I2C_DO_NACK_STOP                      text74       0235E
_do_I2C_DO_NACK_STOP$intlevel0            text74       02362
_do_I2C_IDLE                              text83       02391
_do_I2C_IDLE$intlevel0                    text83       02395
_do_I2C_RCEN                              text76       023B6
_do_I2C_RCEN$intlevel0                    text76       023BA
_do_I2C_RESET                             text84       023DE
_do_I2C_RESET$intlevel0                   text84       023E2
_do_I2C_RX                                text70       01A8C
_do_I2C_RX$intlevel0                      text70       01A90
_do_I2C_SEND_ADR_READ                     text78       02416
_do_I2C_SEND_ADR_READ$intlevel0           text78       0241A
_do_I2C_SEND_ADR_WRITE                    text77       023E9
_do_I2C_SEND_ADR_WRITE$intlevel0          text77       023ED
_do_I2C_SEND_RESTART                      text80       02346
_do_I2C_SEND_RESTART$intlevel0            text80       0234A
_do_I2C_SEND_RESTART_READ                 text82       02336
_do_I2C_SEND_RESTART_READ$intlevel0       text82       0233A
_do_I2C_SEND_RESTART_WRITE                text81       0233E
_do_I2C_SEND_RESTART_WRITE$intlevel0      text81       02342
_do_I2C_SEND_STOP                         text79       0234E
_do_I2C_SEND_STOP$intlevel0               text79       02352
_do_I2C_TX                                text71       01E33
_do_I2C_TX$1132                           cstackBANK0  00034
_do_I2C_TX$intlevel0                      text71       01E37
_do_I2C_TX_EMPTY                          text85       01862
_do_I2C_TX_EMPTY$intlevel0                text85       01866
_dpowers                                  stringtext4  02800
_drv_address                              stringtext8  02A77
_drv_init                                 text12       01F9D
_drv_peak_val                             dataBANK2    0016E
_drv_read                                 text56       01AD0
_drv_reset                                text18       023CA
_drv_write                                text57       02744
_drv_write_DC                             text54       01C94
_errorOut                                 bssBANK2     00166
_eusartRxBuffer                           bssBANK3     001A0
_eusartRxCount                            bssBANK0     00056
_eusartRxHead                             bssBANK0     00058
_eusartRxTail                             bssBANK0     00057
_eusartTxBuffer                           bssBANK3     001A8
_eusartTxBufferRemaining                  nvBANK0      0005E
_eusartTxHead                             bssCOMMON    0007D
_eusartTxTail                             bssBANK0     00059
_execCmd                                  text19       00370
_fifo_check                               text55       02473
_first_bottom                             bssBANK2     0015A
_first_top                                bssBANK2     00156
_fsmStateTable                            dataBANK4    00220
_getActive                                text44       01BAC
_getMotionStatus                          text43       026D9
_getMoveMask                              text42       01BF9
_getPosition                              text41       019C7
_heater_post_time_ms                      dataBANK1    000EB
_heater_pre_time_ms                       dataBANK1    000ED
_i2c1_driver_TXData                       text88       02306
_i2c1_driver_busCollisionISR              bssBANK2     0016A
_i2c1_driver_clearBusCollision            text150      0226F
_i2c1_driver_getRXData                    text89       02299
_i2c1_driver_i2cISR                       bssBANK2     00168
_i2c1_driver_isNACK                       text87       0182B
_i2c1_driver_open                         text17       023D4
_i2c1_driver_resetBus                     text91       00800
_i2c1_driver_restart                      text96       02290
_i2c1_driver_sendACK                      text97       022CA
_i2c1_driver_sendNACK                     text90       022CE
_i2c1_driver_setBusCollisionISR           text16       0239A
_i2c1_driver_setI2cISR                    text15       023A3
_i2c1_driver_start                        text98       0228D
_i2c1_driver_startRX                      text92       02296
_i2c1_driver_stop                         text95       02293
_i2c_ISR                                  text68       027B1
_i2c_ISR$intlevel0                        text68       027B5
_i2c_busCollisionISR                      text149      02272
_i2c_masterOperation                      text64       02720
_i2c_open                                 text14       01B60
_i2c_poller                               text66       023FF
_i2c_setAddress                           text13       0236E
_i2c_setBuffer                            text63       024D2
_i2c_status                               bssBANK2     00120
_isdigit                                  text9        02454
_isdigit$2134                             cstackBANK0  00031
_main                                     maintext     01549
_main_initialize                          text11       00B1B
_motionType                               bssBANK0     00055
_moveMask                                 bssBANK1     000D9
_moveVector_downs                         bssBANK1     000E1
_moveVector_ups                           bssBANK1     000E5
_mssp1_IRQisEnabled                       text65       023C0
_mssp1_clearIRQ                           text69       0229F
_mssp1_setIRQ                             text86       0229C
_mssp1_waitForEvent                       text67       023F4
_parseCmd                                 text1        0050E
_piezo_on_time_ms                         dataBANK1    000E9
_printf                                   text58       006A1
_putch                                    text59       0230C
_readIdx                                  bssBANK0     00052
_readdata                                 bssBANK3     001C5
_remainingSteps                           bssBANK2     0013E
_returnReset                              text93       02300
_returnReset$intlevel0                    text93       02304
_returnStop                               text94       022FA
_returnStop$intlevel0                     text94       022FE
_second_bottom                            bssBANK2     00152
_second_top                               bssBANK2     0015E
_send_2bytes_latchless_IK                 text106      01891
_send_2length_2bytes_IK                   text104      024FF
_send_last_2bytes_IK                      text105      01DDB
_setActive                                text40       01711
_setDrvGain                               text39       01A49
_setDrvPeak                               text38       02496
_setDrvPiezoOnTime                        text31       01EE7
_setHeaterPostTime                        text29       01D36
_setHeaterPreTime                         text28       01F42
_setHeaterToggle                          text27       009C1
_setLEDBrightnessRange                    text26       025D9
_setLEDPwr                                text24       025F7
_setMoveMask                              text23       01629
_startAbsMove                             text22       0259E
_startRelMove                             text21       0254B
_strchr                                   text5        02531
_strcspn                                  text4        018C1
_stricmp                                  text6        01954
_strspn                                   text3        018F1
_strtok                                   text2        013CC
_toupper                                  text7        02463
_zeroPosition                             text20       0169C
atoi@a                                    cstackBANK0  0003C
atoi@s                                    cstackBANK0  0003E
atoi@sign                                 cstackBANK0  0003B
btemp                                     (abs)        0007E
clear_ram0                                clrtext      02422
doAbsMove@allThere                        cstackBANK1  000C6
doAbsMove@i                               cstackBANK1  000C8
doAbsMove@i_1574                          cstackBANK1  000CC
doAbsMove@i_1576                          cstackBANK1  000CA
doMove@t                                  cstackBANK1  000C2
doMove@t_1559                             cstackBANK1  000C4
doRelMove@j                               cstackBANK1  000D6
drv2665@drv_fifo_sine                     stringtext9  010F4
drv2665@drv_sine                          stringtext2  011E8
drv_init@idle_timeout                     cstackBANK1  000B8
drv_init@output_gain                      cstackBANK1  000B6
drv_read@buff                             cstackBANK0  0004C
drv_read@reg                              cstackBANK0  0004B
drv_write@buff                            cstackBANK0  0004C
drv_write@data                            cstackBANK0  00049
drv_write@reg                             cstackBANK0  0004B
drv_write_DC@duration_ms                  cstackBANK1  000BA
drv_write_DC@i                            cstackBANK1  000BD
drv_write_DC@val                          cstackBANK1  000B8
end_of_initialization                     cinit        000BC
execCmd@s                                 cstackBANK1  000D4
fifo_check@reply                          cstackBANK1  000B7
getActive@i                               cstackBANK1  000B7
getMoveMask@i                             cstackBANK1  000B7
getPosition@a                             cstackBANK1  000B5
i1LEDsOn@LEDpins                          cstackBANK0  00027
i1LEDsOn@topOrBottom                      cstackBANK0  0002B
i1_LEDsOn                                 text157      02675
i1_do_I2C_DO_ACK                          text126      022BA
i1_do_I2C_DO_ADDRESS_NACK                 text123      026FC
i1_do_I2C_DO_NACK_RESTART                 text124      022C2
i1_do_I2C_DO_NACK_STOP                    text125      022BE
i1_do_I2C_IDLE                            text134      022E5
i1_do_I2C_RCEN                            text127      022F4
i1_do_I2C_RESET                           text135      02318
i1_do_I2C_RX                              text121      01988
i1_do_I2C_SEND_ADR_READ                   text129      02326
i1_do_I2C_SEND_ADR_WRITE                  text128      0231F
i1_do_I2C_SEND_RESTART                    text131      022B2
i1_do_I2C_SEND_RESTART_READ               text133      022AA
i1_do_I2C_SEND_RESTART_WRITE              text132      022AE
i1_do_I2C_SEND_STOP                       text130      022B6
i1_do_I2C_TX                              text122      01C46
i1_do_I2C_TX$1132                         cstackCOMMON 00073
i1_do_I2C_TX_EMPTY                        text136      01838
i1_i2c1_driver_TXData                     text139      022E0
i1_i2c1_driver_getRXData                  text140      0227E
i1_i2c1_driver_isNACK                     text138      0240A
i1_i2c1_driver_resetBus                   text142      0182A
i1_i2c1_driver_restart                    text147      02275
i1_i2c1_driver_sendACK                    text148      022A2
i1_i2c1_driver_sendNACK                   text141      022A6
i1_i2c1_driver_startRX                    text143      0227B
i1_i2c1_driver_stop                       text146      02278
i1_i2c_ISR                                text119      02615
i1_mssp1_clearIRQ                         text120      02284
i1_mssp1_setIRQ                           text137      02281
i1_returnReset                            text144      00002
i1_returnStop                             text145      02267
i1_send_2bytes_latchless_IK               text160      027D7
i1_send_2length_2bytes_IK                 text158      024E7
i1_send_last_2bytes_IK                    text159      01B17
i1i2c1_driver_TXData@d                    cstackCOMMON 00070
i1returnReset@p                           cstackCOMMON 00070
i1send_2bytes_latchless_IK@data           cstackCOMMON 00070
i1send_2bytes_latchless_IK@j              cstackCOMMON 00076
i1send_2length_2bytes_IK@data1            cstackBANK0  00020
i1send_2length_2bytes_IK@data2            cstackBANK0  00022
i1send_2length_2bytes_IK@latch_start      cstackBANK0  00024
i1send_2length_2bytes_IK@topOrBottom      cstackBANK0  00025
i1send_last_2bytes_IK@data                cstackCOMMON 00070
i1send_last_2bytes_IK@j                   cstackCOMMON 00079
i1send_last_2bytes_IK@latch_start         cstackCOMMON 00072
i1send_last_2bytes_IK@topOrBottom         cstackCOMMON 00073
i2c1_driver_TXData@d                      cstackBANK0  00031
i2c1_driver_setBusCollisionISR@f          cstackBANK0  00031
i2c1_driver_setI2cISR@f                   cstackBANK0  00031
i2c_masterOperation@read                  cstackBANK0  00038
i2c_masterOperation@ret                   cstackBANK0  00039
i2c_open@address                          cstackBANK0  00035
i2c_open@ret                              cstackBANK0  00034
i2c_setAddress@address                    cstackBANK0  00032
i2c_setBuffer@buffer                      cstackBANK0  00031
i2c_setBuffer@bufferSize                  cstackBANK0  00033
init_ram                                  inittext     0242E
int$flags                                 (abs)        0007E
intlevel0                                 functab      00000
intlevel1                                 functab      00000
intlevel2                                 functab      00000
intlevel3                                 functab      00000
intlevel4                                 functab      00000
intlevel5                                 functab      00000
isdigit@c                                 cstackBANK0  00032
mssp1_waitForEvent@timeout                cstackBANK0  00031
parseCmd@cmdString                        cstackBANK0  00047
parseCmd@p                                cstackBANK0  0004A
parseCmd@paramIter                        cstackBANK0  00048
parseCmd@s                                cstackBANK0  00045
printf@ap                                 cstackBANK1  000B3
printf@c                                  cstackBANK1  000B4
printf@f                                  cstackBANK1  000A0
printf@flag                               cstackBANK1  000B2
printf@prec                               cstackBANK1  000AC
printf@val                                cstackBANK1  000AE
putch@txData                              cstackBANK0  00033
reset_vec                                 reset_vec    00000
returnReset@p                             cstackBANK0  00031
send_2bytes_latchless_IK@data             cstackBANK0  00031
send_2bytes_latchless_IK@j                cstackBANK0  00037
send_2length_2bytes_IK@data1              cstackBANK0  0003C
send_2length_2bytes_IK@data2              cstackBANK0  0003E
send_2length_2bytes_IK@latch_start        cstackBANK0  00040
send_2length_2bytes_IK@topOrBottom        cstackBANK0  00041
send_last_2bytes_IK@data                  cstackBANK0  00031
send_last_2bytes_IK@j                     cstackBANK0  0003A
send_last_2bytes_IK@latch_start           cstackBANK0  00033
send_last_2bytes_IK@topOrBottom           cstackBANK0  00034
setActive@onOff                           cstackBANK1  000B7
setActive@probeNum                        cstackBANK1  000B5
setDrvGain@gain                           cstackBANK1  000B5
setDrvGain@setGain                        cstackBANK1  000B8
setDrvPeak@pk                             cstackBANK1  000B5
setDrvPiezoOnTime@t                       cstackBANK1  000BD
setHeaterPostTime@t                       cstackBANK1  000BD
setHeaterPreTime@t                        cstackBANK1  000BD
setHeaterToggle@num                       cstackBANK1  000B5
setHeaterToggle@topOrB                    cstackBANK1  000B7
setLEDBrightnessRange@r                   cstackBANK1  000B5
setLEDBrightnessRange@tOB                 cstackBANK1  000B7
setLEDPwr@pwr                             cstackBANK1  000B5
setLEDPwr@topOrBottom                     cstackBANK1  000B7
setMoveMask@onOff                         cstackBANK1  000B7
setMoveMask@probeNum                      cstackBANK1  000B5
stackhi                                   (abs)        0278F
stacklo                                   (abs)        0217C
start                                     init         00050
startAbsMove@steps                        cstackBANK1  000B5
startRelMove@steps                        cstackBANK1  000B5
start_initialization                      cinit        00052
strchr@chr                                cstackBANK0  00033
strchr@ptr                                cstackBANK0  00031
strcspn@i                                 cstackBANK0  0003C
strcspn@s1                                cstackBANK0  0003E
strcspn@s2                                cstackBANK0  00038
stricmp@r                                 cstackBANK0  00037
stricmp@s1                                cstackBANK0  00038
stricmp@s2                                cstackBANK0  00033
strspn@i                                  cstackBANK0  0003C
strspn@s1                                 cstackBANK0  0003E
strspn@s2                                 cstackBANK0  00038
strtok@s1                                 cstackBANK0  00044
strtok@s2                                 cstackBANK0  0003F
strtok@sp                                 bssBANK0     00054
toupper@c                                 cstackBANK0  00032
wtemp0                                    (abs)        0007E
zeroPosition@i                            cstackBANK0  00049


FUNCTION INFORMATION:

 *************** function _main *****************
 Defined at:
		line 130 in file "main.c"
 Parameters:    Size  Location     Type
		None
 Auto vars:     Size  Location     Type
		None
 Return value:  Size  Location     Type
                  1    wreg      void 
 Registers used:
		wreg, fsr0l, fsr0h, fsr1l, fsr1h, status,2, status,0, pclath, cstack
 Tracked objects:
		On entry : 
		On exit  : 
		Unchanged: 
 Data sizes:     COMMON   BANK0   BANK1   BANK2   BANK3   BANK4   BANK5   BANK6   BANK7   BANK8   BANK9  BANK10  BANK11  BANK12  BANK13  BANK14  BANK15  BANK16  BANK17  BANK18  BANK19  BANK20  BANK21  BANK22  BANK23  BANK24  BANK25
      Params:         0       0       0       0       0       0       0       0       0       0       0       0       0       0       0       0       0       0       0       0       0       0       0       0       0       0       0
      Locals:         0       0       0       0       0       0       0       0       0       0       0       0       0       0       0       0       0       0       0       0       0       0       0       0       0       0       0
      Temps:          0       0       1       0       0       0       0       0       0       0       0       0       0       0       0       0       0       0       0       0       0       0       0       0       0       0       0
      Totals:         0       0       1       0       0       0       0       0       0       0       0       0       0       0       0       0       0       0       0       0       0       0       0       0       0       0       0
Total ram usage:        1 bytes
 Hardware stack levels required when called:   17
 This function calls:
		_EUSART_Read
		_SYSTEM_Initialize
		_doAbsMove
		_doRelMove
		_execCmd
		_main_initialize
		_parseCmd
		_printf
 This function is called by:
		Startup code after reset
 This function uses a non-reentrant model


 *************** function _parseCmd *****************
 Defined at:
		line 5 in file "cmd_parser.c"
 Parameters:    Size  Location     Type
  cmdString       1    wreg     PTR unsigned char 
		 -> readdata(20), 
  s               1   37[BANK0 ] PTR struct CMD_STRUCT
		 -> cmd_struct(21), 
 Auto vars:     Size  Location     Type
  cmdString       1   39[BANK0 ] PTR unsigned char 
		 -> readdata(20), 
  p               1   42[BANK0 ] PTR unsigned char 
		 -> readdata(20), NULL(0), 
  paramIter       2   40[BANK0 ] int 
 Return value:  Size  Location     Type
                  1    wreg      void 
 Registers used:
		wreg, fsr0l, fsr0h, fsr1l, fsr1h, status,2, status,0, pclath, cstack
 Tracked objects:
		On entry : 
		On exit  : 
		Unchanged: 
 Data sizes:     COMMON   BANK0   BANK1   BANK2   BANK3   BANK4   BANK5   BANK6   BANK7   BANK8   BANK9  BANK10  BANK11  BANK12  BANK13  BANK14  BANK15  BANK16  BANK17  BANK18  BANK19  BANK20  BANK21  BANK22  BANK23  BANK24  BANK25
      Params:         0       1       0       0       0       0       0       0       0       0       0       0       0       0       0       0       0       0       0       0       0       0       0       0       0       0       0
      Locals:         0       4       0       0       0       0       0       0       0       0       0       0       0       0       0       0       0       0       0       0       0       0       0       0       0       0       0
      Temps:          0       1       0       0       0       0       0       0       0       0       0       0       0       0       0       0       0       0       0       0       0       0       0       0       0       0       0
      Totals:         0       6       0       0       0       0       0       0       0       0       0       0       0       0       0       0       0       0       0       0       0       0       0       0       0       0       0
Total ram usage:        6 bytes
 Hardware stack levels used:    1
 Hardware stack levels required when called:    9
 This function calls:
		_atoi
		_stricmp
		_strtok
 This function is called by:
		_main
 This function uses a non-reentrant model


 *************** function _strtok *****************
 Defined at:
		line 8 in file "C:\Program Files (x86)\Microchip\xc8\v1.45\sources\common\strtok.c"
 Parameters:    Size  Location     Type
  s1              1    wreg     PTR unsigned char 
		 -> readdata(20), NULL(0), 
  s2              2   31[BANK0 ] PTR const unsigned char 
		 -> STR_57(2), STR_56(2), 
 Auto vars:     Size  Location     Type
  s1              1   36[BANK0 ] PTR unsigned char 
		 -> readdata(20), NULL(0), 
 Return value:  Size  Location     Type
                  1    wreg      PTR unsigned char 
 Registers used:
		wreg, fsr0l, fsr0h, fsr1l, fsr1h, status,2, status,0, pclath, cstack
 Tracked objects:
		On entry : 
		On exit  : 
		Unchanged: 
 Data sizes:     COMMON   BANK0   BANK1   BANK2   BANK3   BANK4   BANK5   BANK6   BANK7   BANK8   BANK9  BANK10  BANK11  BANK12  BANK13  BANK14  BANK15  BANK16  BANK17  BANK18  BANK19  BANK20  BANK21  BANK22  BANK23  BANK24  BANK25
      Params:         0       2       0       0       0       0       0       0       0       0       0       0       0       0       0       0       0       0       0       0       0       0       0       0       0       0       0
      Locals:         0       1       0       0       0       0       0       0       0       0       0       0       0       0       0       0       0       0       0       0       0       0       0       0       0       0       0
      Temps:          0       3       0       0       0       0       0       0       0       0       0       0       0       0       0       0       0       0       0       0       0       0       0       0       0       0       0
      Totals:         0       6       0       0       0       0       0       0       0       0       0       0       0       0       0       0       0       0       0       0       0       0       0       0       0       0       0
Total ram usage:        6 bytes
 Hardware stack levels used:    1
 Hardware stack levels required when called:    8
 This function calls:
		_strcspn
		_strspn
 This function is called by:
		_parseCmd
 This function uses a non-reentrant model


 *************** function _strspn *****************
 Defined at:
		line 4 in file "C:\Program Files (x86)\Microchip\xc8\v1.45\sources\common\strspn.c"
 Parameters:    Size  Location     Type
  s1              1    wreg     PTR const unsigned char 
		 -> readdata(20), NULL(0), 
  s2              2   24[BANK0 ] PTR const unsigned char 
		 -> STR_57(2), STR_56(2), 
 Auto vars:     Size  Location     Type
  s1              1   30[BANK0 ] PTR const unsigned char 
		 -> readdata(20), NULL(0), 
  i               2   28[BANK0 ] unsigned int 
 Return value:  Size  Location     Type
                  2   24[BANK0 ] unsigned int 
 Registers used:
		wreg, fsr0l, fsr0h, fsr1l, fsr1h, status,2, status,0, pclath, cstack
 Tracked objects:
		On entry : 
		On exit  : 
		Unchanged: 
 Data sizes:     COMMON   BANK0   BANK1   BANK2   BANK3   BANK4   BANK5   BANK6   BANK7   BANK8   BANK9  BANK10  BANK11  BANK12  BANK13  BANK14  BANK15  BANK16  BANK17  BANK18  BANK19  BANK20  BANK21  BANK22  BANK23  BANK24  BANK25
      Params:         0       2       0       0       0       0       0       0       0       0       0       0       0       0       0       0       0       0       0       0       0       0       0       0       0       0       0
      Locals:         0       3       0       0       0       0       0       0       0       0       0       0       0       0       0       0       0       0       0       0       0       0       0       0       0       0       0
      Temps:          0       2       0       0       0       0       0       0       0       0       0       0       0       0       0       0       0       0       0       0       0       0       0       0       0       0       0
      Totals:         0       7       0       0       0       0       0       0       0       0       0       0       0       0       0       0       0       0       0       0       0       0       0       0       0       0       0
Total ram usage:        7 bytes
 Hardware stack levels used:    1
 Hardware stack levels required when called:    7
 This function calls:
		_strchr
 This function is called by:
		_strtok
 This function uses a non-reentrant model


 *************** function _strcspn *****************
 Defined at:
		line 4 in file "C:\Program Files (x86)\Microchip\xc8\v1.45\sources\common\strcspn.c"
 Parameters:    Size  Location     Type
  s1              1    wreg     PTR const unsigned char 
		 -> readdata(20), NULL(0), 
  s2              2   24[BANK0 ] PTR const unsigned char 
		 -> STR_57(2), STR_56(2), 
 Auto vars:     Size  Location     Type
  s1              1   30[BANK0 ] PTR const unsigned char 
		 -> readdata(20), NULL(0), 
  i               2   28[BANK0 ] unsigned int 
 Return value:  Size  Location     Type
                  2   24[BANK0 ] unsigned int 
 Registers used:
		wreg, fsr0l, fsr0h, fsr1l, fsr1h, status,2, status,0, pclath, cstack
 Tracked objects:
		On entry : 
		On exit  : 
		Unchanged: 
 Data sizes:     COMMON   BANK0   BANK1   BANK2   BANK3   BANK4   BANK5   BANK6   BANK7   BANK8   BANK9  BANK10  BANK11  BANK12  BANK13  BANK14  BANK15  BANK16  BANK17  BANK18  BANK19  BANK20  BANK21  BANK22  BANK23  BANK24  BANK25
      Params:         0       2       0       0       0       0       0       0       0       0       0       0       0       0       0       0       0       0       0       0       0       0       0       0       0       0       0
      Locals:         0       3       0       0       0       0       0       0       0       0       0       0       0       0       0       0       0       0       0       0       0       0       0       0       0       0       0
      Temps:          0       2       0       0       0       0       0       0       0       0       0       0       0       0       0       0       0       0       0       0       0       0       0       0       0       0       0
      Totals:         0       7       0       0       0       0       0       0       0       0       0       0       0       0       0       0       0       0       0       0       0       0       0       0       0       0       0
Total ram usage:        7 bytes
 Hardware stack levels used:    1
 Hardware stack levels required when called:    7
 This function calls:
		_strchr
 This function is called by:
		_strtok
 This function uses a non-reentrant model


 *************** function _strchr *****************
 Defined at:
		line 4 in file "C:\Program Files (x86)\Microchip\xc8\v1.45\sources\common\strchr.c"
 Parameters:    Size  Location     Type
  ptr             2   17[BANK0 ] PTR const unsigned char 
		 -> STR_57(2), STR_56(2), 
  chr             2   19[BANK0 ] int 
 Auto vars:     Size  Location     Type
		None
 Return value:  Size  Location     Type
                  2   17[BANK0 ] PTR unsigned char 
 Registers used:
		wreg, fsr0l, fsr0h, status,2, status,0, pclath
 Tracked objects:
		On entry : 
		On exit  : 
		Unchanged: 
 Data sizes:     COMMON   BANK0   BANK1   BANK2   BANK3   BANK4   BANK5   BANK6   BANK7   BANK8   BANK9  BANK10  BANK11  BANK12  BANK13  BANK14  BANK15  BANK16  BANK17  BANK18  BANK19  BANK20  BANK21  BANK22  BANK23  BANK24  BANK25
      Params:         0       4       0       0       0       0       0       0       0       0       0       0       0       0       0       0       0       0       0       0       0       0       0       0       0       0       0
      Locals:         0       0       0       0       0       0       0       0       0       0       0       0       0       0       0       0       0       0       0       0       0       0       0       0       0       0       0
      Temps:          0       3       0       0       0       0       0       0       0       0       0       0       0       0       0       0       0       0       0       0       0       0       0       0       0       0       0
      Totals:         0       7       0       0       0       0       0       0       0       0       0       0       0       0       0       0       0       0       0       0       0       0       0       0       0       0       0
Total ram usage:        7 bytes
 Hardware stack levels used:    1
 Hardware stack levels required when called:    6
 This function calls:
		Nothing
 This function is called by:
		_strcspn
		_strspn
 This function uses a non-reentrant model


 *************** function _stricmp *****************
 Defined at:
		line 5 in file "C:\Program Files (x86)\Microchip\xc8\v1.45\sources\common\stricmp.c"
 Parameters:    Size  Location     Type
  s1              1    wreg     PTR const unsigned char 
		 -> readdata(20), NULL(0), 
  s2              2   19[BANK0 ] PTR const unsigned char 
		 -> STR_78(5), STR_77(5), STR_76(7), STR_75(8), 
		 -> STR_74(5), STR_73(5), STR_72(13), STR_71(7), 
		 -> STR_70(8), STR_69(15), STR_68(14), STR_67(12), 
		 -> STR_66(8), STR_65(8), STR_64(2), STR_63(5), 
		 -> STR_62(5), STR_61(2), STR_60(4), STR_59(4), 
		 -> STR_58(4), 
 Auto vars:     Size  Location     Type
  s1              1   24[BANK0 ] PTR const unsigned char 
		 -> readdata(20), NULL(0), 
  r               1   23[BANK0 ] char 
 Return value:  Size  Location     Type
                  2   19[BANK0 ] int 
 Registers used:
		wreg, fsr0l, fsr0h, fsr1l, fsr1h, status,2, status,0, pclath, cstack
 Tracked objects:
		On entry : 
		On exit  : 
		Unchanged: 
 Data sizes:     COMMON   BANK0   BANK1   BANK2   BANK3   BANK4   BANK5   BANK6   BANK7   BANK8   BANK9  BANK10  BANK11  BANK12  BANK13  BANK14  BANK15  BANK16  BANK17  BANK18  BANK19  BANK20  BANK21  BANK22  BANK23  BANK24  BANK25
      Params:         0       2       0       0       0       0       0       0       0       0       0       0       0       0       0       0       0       0       0       0       0       0       0       0       0       0       0
      Locals:         0       2       0       0       0       0       0       0       0       0       0       0       0       0       0       0       0       0       0       0       0       0       0       0       0       0       0
      Temps:          0       2       0       0       0       0       0       0       0       0       0       0       0       0       0       0       0       0       0       0       0       0       0       0       0       0       0
      Totals:         0       6       0       0       0       0       0       0       0       0       0       0       0       0       0       0       0       0       0       0       0       0       0       0       0       0       0
Total ram usage:        6 bytes
 Hardware stack levels used:    1
 Hardware stack levels required when called:    7
 This function calls:
		_toupper
 This function is called by:
		_parseCmd
 This function uses a non-reentrant model


 *************** function _toupper *****************
 Defined at:
		line 5 in file "C:\Program Files (x86)\Microchip\xc8\v1.45\sources\common\toupper.c"
 Parameters:    Size  Location     Type
  c               1    wreg     unsigned char 
 Auto vars:     Size  Location     Type
  c               1   18[BANK0 ] unsigned char 
 Return value:  Size  Location     Type
                  1    wreg      unsigned char 
 Registers used:
		wreg, status,2, status,0
 Tracked objects:
		On entry : 
		On exit  : 
		Unchanged: 
 Data sizes:     COMMON   BANK0   BANK1   BANK2   BANK3   BANK4   BANK5   BANK6   BANK7   BANK8   BANK9  BANK10  BANK11  BANK12  BANK13  BANK14  BANK15  BANK16  BANK17  BANK18  BANK19  BANK20  BANK21  BANK22  BANK23  BANK24  BANK25
      Params:         0       0       0       0       0       0       0       0       0       0       0       0       0       0       0       0       0       0       0       0       0       0       0       0       0       0       0
      Locals:         0       1       0       0       0       0       0       0       0       0       0       0       0       0       0       0       0       0       0       0       0       0       0       0       0       0       0
      Temps:          0       1       0       0       0       0       0       0       0       0       0       0       0       0       0       0       0       0       0       0       0       0       0       0       0       0       0
      Totals:         0       2       0       0       0       0       0       0       0       0       0       0       0       0       0       0       0       0       0       0       0       0       0       0       0       0       0
Total ram usage:        2 bytes
 Hardware stack levels used:    1
 Hardware stack levels required when called:    6
 This function calls:
		Nothing
 This function is called by:
		_stricmp
 This function uses a non-reentrant model


 *************** function _atoi *****************
 Defined at:
		line 5 in file "C:\Program Files (x86)\Microchip\xc8\v1.45\sources\common\atoi.c"
 Parameters:    Size  Location     Type
  s               1    wreg     PTR const unsigned char 
		 -> readdata(20), NULL(0), 
 Auto vars:     Size  Location     Type
  s               1   30[BANK0 ] PTR const unsigned char 
		 -> readdata(20), NULL(0), 
  a               2   28[BANK0 ] int 
  sign            1   27[BANK0 ] unsigned char 
 Return value:  Size  Location     Type
                  2   23[BANK0 ] int 
 Registers used:
		wreg, fsr1l, fsr1h, status,2, status,0, pclath, cstack
 Tracked objects:
		On entry : 
		On exit  : 
		Unchanged: 
 Data sizes:     COMMON   BANK0   BANK1   BANK2   BANK3   BANK4   BANK5   BANK6   BANK7   BANK8   BANK9  BANK10  BANK11  BANK12  BANK13  BANK14  BANK15  BANK16  BANK17  BANK18  BANK19  BANK20  BANK21  BANK22  BANK23  BANK24  BANK25
      Params:         0       2       0       0       0       0       0       0       0       0       0       0       0       0       0       0       0       0       0       0       0       0       0       0       0       0       0
      Locals:         0       4       0       0       0       0       0       0       0       0       0       0       0       0       0       0       0       0       0       0       0       0       0       0       0       0       0
      Temps:          0       2       0       0       0       0       0       0       0       0       0       0       0       0       0       0       0       0       0       0       0       0       0       0       0       0       0
      Totals:         0       8       0       0       0       0       0       0       0       0       0       0       0       0       0       0       0       0       0       0       0       0       0       0       0       0       0
Total ram usage:        8 bytes
 Hardware stack levels used:    1
 Hardware stack levels required when called:    7
 This function calls:
		___wmul
		_isdigit
 This function is called by:
		_parseCmd
 This function uses a non-reentrant model


 *************** function _isdigit *****************
 Defined at:
		line 8 in file "C:\Program Files (x86)\Microchip\xc8\v1.45\sources\common\isdigit.c"
 Parameters:    Size  Location     Type
  c               1    wreg     unsigned char 
 Auto vars:     Size  Location     Type
  c               1   18[BANK0 ] unsigned char 
 Return value:  Size  Location     Type
		None               void
 Registers used:
		wreg, status,2, status,0
 Tracked objects:
		On entry : 
		On exit  : 
		Unchanged: 
 Data sizes:     COMMON   BANK0   BANK1   BANK2   BANK3   BANK4   BANK5   BANK6   BANK7   BANK8   BANK9  BANK10  BANK11  BANK12  BANK13  BANK14  BANK15  BANK16  BANK17  BANK18  BANK19  BANK20  BANK21  BANK22  BANK23  BANK24  BANK25
      Params:         0       0       0       0       0       0       0       0       0       0       0       0       0       0       0       0       0       0       0       0       0       0       0       0       0       0       0
      Locals:         0       2       0       0       0       0       0       0       0       0       0       0       0       0       0       0       0       0       0       0       0       0       0       0       0       0       0
      Temps:          0       0       0       0       0       0       0       0       0       0       0       0       0       0       0       0       0       0       0       0       0       0       0       0       0       0       0
      Totals:         0       2       0       0       0       0       0       0       0       0       0       0       0       0       0       0       0       0       0       0       0       0       0       0       0       0       0
Total ram usage:        2 bytes
 Hardware stack levels used:    1
 Hardware stack levels required when called:    6
 This function calls:
		Nothing
 This function is called by:
		_atoi
 This function uses a non-reentrant model


 *************** function ___wmul *****************
 Defined at:
		line 15 in file "C:\Program Files (x86)\Microchip\xc8\v1.45\sources\common\Umul16.c"
 Parameters:    Size  Location     Type
  multiplier      2   17[BANK0 ] unsigned int 
  multiplicand    2   19[BANK0 ] unsigned int 
 Auto vars:     Size  Location     Type
  product         2   21[BANK0 ] unsigned int 
 Return value:  Size  Location     Type
                  2   17[BANK0 ] unsigned int 
 Registers used:
		wreg, status,2, status,0
 Tracked objects:
		On entry : 
		On exit  : 
		Unchanged: 
 Data sizes:     COMMON   BANK0   BANK1   BANK2   BANK3   BANK4   BANK5   BANK6   BANK7   BANK8   BANK9  BANK10  BANK11  BANK12  BANK13  BANK14  BANK15  BANK16  BANK17  BANK18  BANK19  BANK20  BANK21  BANK22  BANK23  BANK24  BANK25
      Params:         0       4       0       0       0       0       0       0       0       0       0       0       0       0       0       0       0       0       0       0       0       0       0       0       0       0       0
      Locals:         0       2       0       0       0       0       0       0       0       0       0       0       0       0       0       0       0       0       0       0       0       0       0       0       0       0       0
      Temps:          0       0       0       0       0       0       0       0       0       0       0       0       0       0       0       0       0       0       0       0       0       0       0       0       0       0       0
      Totals:         0       6       0       0       0       0       0       0       0       0       0       0       0       0       0       0       0       0       0       0       0       0       0       0       0       0       0
Total ram usage:        6 bytes
 Hardware stack levels used:    1
 Hardware stack levels required when called:    6
 This function calls:
		Nothing
 This function is called by:
		_atoi
 This function uses a non-reentrant model


 *************** function _main_initialize *****************
 Defined at:
		line 185 in file "main.c"
 Parameters:    Size  Location     Type
		None
 Auto vars:     Size  Location     Type
		None
 Return value:  Size  Location     Type
                  1    wreg      void 
 Registers used:
		wreg, fsr0l, fsr0h, fsr1l, fsr1h, status,2, status,0, pclath, cstack
 Tracked objects:
		On entry : 
		On exit  : 
		Unchanged: 
 Data sizes:     COMMON   BANK0   BANK1   BANK2   BANK3   BANK4   BANK5   BANK6   BANK7   BANK8   BANK9  BANK10  BANK11  BANK12  BANK13  BANK14  BANK15  BANK16  BANK17  BANK18  BANK19  BANK20  BANK21  BANK22  BANK23  BANK24  BANK25
      Params:         0       0       0       0       0       0       0       0       0       0       0       0       0       0       0       0       0       0       0       0       0       0       0       0       0       0       0
      Locals:         0       0       0       0       0       0       0       0       0       0       0       0       0       0       0       0       0       0       0       0       0       0       0       0       0       0       0
      Temps:          0       0       2       0       0       0       0       0       0       0       0       0       0       0       0       0       0       0       0       0       0       0       0       0       0       0       0
      Totals:         0       0       2       0       0       0       0       0       0       0       0       0       0       0       0       0       0       0       0       0       0       0       0       0       0       0       0
Total ram usage:        2 bytes
 Hardware stack levels used:    1
 Hardware stack levels required when called:   15
 This function calls:
		_LED_setBrightnessRange
		_LEDsPwr
		_TMR0_Load8bitPeriod
		_TMR2_LoadPeriodRegister
		___awtoft
		___ftadd
		___ftmul
		___fttol
		_drv_init
		_printf
 This function is called by:
		_main
 This function uses a non-reentrant model


 *************** function _drv_init *****************
 Defined at:
		line 3 in file "drv2665.c"
 Parameters:    Size  Location     Type
  output_gain     2   22[BANK1 ] int 
  idle_timeout    2   24[BANK1 ] int 
 Auto vars:     Size  Location     Type
		None
 Return value:  Size  Location     Type
                  1    wreg      void 
 Registers used:
		wreg, fsr0l, fsr0h, fsr1l, fsr1h, status,2, status,0, pclath, cstack
 Tracked objects:
		On entry : 
		On exit  : 
		Unchanged: 
 Data sizes:     COMMON   BANK0   BANK1   BANK2   BANK3   BANK4   BANK5   BANK6   BANK7   BANK8   BANK9  BANK10  BANK11  BANK12  BANK13  BANK14  BANK15  BANK16  BANK17  BANK18  BANK19  BANK20  BANK21  BANK22  BANK23  BANK24  BANK25
      Params:         0       0       4       0       0       0       0       0       0       0       0       0       0       0       0       0       0       0       0       0       0       0       0       0       0       0       0
      Locals:         0       0       0       0       0       0       0       0       0       0       0       0       0       0       0       0       0       0       0       0       0       0       0       0       0       0       0
      Temps:          0       0       1       0       0       0       0       0       0       0       0       0       0       0       0       0       0       0       0       0       0       0       0       0       0       0       0
      Totals:         0       0       5       0       0       0       0       0       0       0       0       0       0       0       0       0       0       0       0       0       0       0       0       0       0       0       0
Total ram usage:        5 bytes
 Hardware stack levels used:    1
 Hardware stack levels required when called:   14
 This function calls:
		_drv_reset
		_drv_write
		_i2c_open
		_i2c_setAddress
		_printf
 This function is called by:
		_main_initialize
 This function uses a non-reentrant model


 *************** function _i2c_setAddress *****************
 Defined at:
		line 156 in file "mcc_generated_files/drivers/i2c_master.c"
 Parameters:    Size  Location     Type
  address         1    wreg     unsigned char 
 Auto vars:     Size  Location     Type
  address         1   18[BANK0 ] unsigned char 
 Return value:  Size  Location     Type
                  1    wreg      void 
 Registers used:
		wreg
 Tracked objects:
		On entry : 
		On exit  : 
		Unchanged: 
 Data sizes:     COMMON   BANK0   BANK1   BANK2   BANK3   BANK4   BANK5   BANK6   BANK7   BANK8   BANK9  BANK10  BANK11  BANK12  BANK13  BANK14  BANK15  BANK16  BANK17  BANK18  BANK19  BANK20  BANK21  BANK22  BANK23  BANK24  BANK25
      Params:         0       0       0       0       0       0       0       0       0       0       0       0       0       0       0       0       0       0       0       0       0       0       0       0       0       0       0
      Locals:         0       1       0       0       0       0       0       0       0       0       0       0       0       0       0       0       0       0       0       0       0       0       0       0       0       0       0
      Temps:          0       1       0       0       0       0       0       0       0       0       0       0       0       0       0       0       0       0       0       0       0       0       0       0       0       0       0
      Totals:         0       2       0       0       0       0       0       0       0       0       0       0       0       0       0       0       0       0       0       0       0       0       0       0       0       0       0
Total ram usage:        2 bytes
 Hardware stack levels used:    1
 Hardware stack levels required when called:    6
 This function calls:
		Nothing
 This function is called by:
		_drv_init
 This function uses a non-reentrant model


 *************** function _i2c_open *****************
 Defined at:
		line 116 in file "mcc_generated_files/drivers/i2c_master.c"
 Parameters:    Size  Location     Type
  address         1    wreg     unsigned char 
 Auto vars:     Size  Location     Type
  address         1   21[BANK0 ] unsigned char 
  ret             1   20[BANK0 ] enum E8193
 Return value:  Size  Location     Type
                  1    wreg      enum E8193
 Registers used:
		wreg, status,2, status,0, pclath, cstack
 Tracked objects:
		On entry : 
		On exit  : 
		Unchanged: 
 Data sizes:     COMMON   BANK0   BANK1   BANK2   BANK3   BANK4   BANK5   BANK6   BANK7   BANK8   BANK9  BANK10  BANK11  BANK12  BANK13  BANK14  BANK15  BANK16  BANK17  BANK18  BANK19  BANK20  BANK21  BANK22  BANK23  BANK24  BANK25
      Params:         0       0       0       0       0       0       0       0       0       0       0       0       0       0       0       0       0       0       0       0       0       0       0       0       0       0       0
      Locals:         0       2       0       0       0       0       0       0       0       0       0       0       0       0       0       0       0       0       0       0       0       0       0       0       0       0       0
      Temps:          0       1       0       0       0       0       0       0       0       0       0       0       0       0       0       0       0       0       0       0       0       0       0       0       0       0       0
      Totals:         0       3       0       0       0       0       0       0       0       0       0       0       0       0       0       0       0       0       0       0       0       0       0       0       0       0       0
Total ram usage:        3 bytes
 Hardware stack levels used:    1
 Hardware stack levels required when called:    7
 This function calls:
		_i2c1_driver_open
		_i2c1_driver_setBusCollisionISR
		_i2c1_driver_setI2cISR
		_mssp1_clearIRQ
 This function is called by:
		_drv_init
 This function uses a non-reentrant model


 *************** function _i2c1_driver_setI2cISR *****************
 Defined at:
		line 262 in file "mcc_generated_files/i2c1_driver.c"
 Parameters:    Size  Location     Type
  f               2   17[BANK0 ] PTR void 
		 -> i2c_ISR(1), 
 Auto vars:     Size  Location     Type
		None
 Return value:  Size  Location     Type
                  1    wreg      void 
 Registers used:
		wreg
 Tracked objects:
		On entry : 
		On exit  : 
		Unchanged: 
 Data sizes:     COMMON   BANK0   BANK1   BANK2   BANK3   BANK4   BANK5   BANK6   BANK7   BANK8   BANK9  BANK10  BANK11  BANK12  BANK13  BANK14  BANK15  BANK16  BANK17  BANK18  BANK19  BANK20  BANK21  BANK22  BANK23  BANK24  BANK25
      Params:         0       2       0       0       0       0       0       0       0       0       0       0       0       0       0       0       0       0       0       0       0       0       0       0       0       0       0
      Locals:         0       0       0       0       0       0       0       0       0       0       0       0       0       0       0       0       0       0       0       0       0       0       0       0       0       0       0
      Temps:          0       0       0       0       0       0       0       0       0       0       0       0       0       0       0       0       0       0       0       0       0       0       0       0       0       0       0
      Totals:         0       2       0       0       0       0       0       0       0       0       0       0       0       0       0       0       0       0       0       0       0       0       0       0       0       0       0
Total ram usage:        2 bytes
 Hardware stack levels used:    1
 Hardware stack levels required when called:    6
 This function calls:
		Nothing
 This function is called by:
		_i2c_open
 This function uses a non-reentrant model


 *************** function _i2c1_driver_setBusCollisionISR *****************
 Defined at:
		line 258 in file "mcc_generated_files/i2c1_driver.c"
 Parameters:    Size  Location     Type
  f               2   17[BANK0 ] PTR void 
		 -> i2c_busCollisionISR(1), 
 Auto vars:     Size  Location     Type
		None
 Return value:  Size  Location     Type
                  1    wreg      void 
 Registers used:
		wreg
 Tracked objects:
		On entry : 
		On exit  : 
		Unchanged: 
 Data sizes:     COMMON   BANK0   BANK1   BANK2   BANK3   BANK4   BANK5   BANK6   BANK7   BANK8   BANK9  BANK10  BANK11  BANK12  BANK13  BANK14  BANK15  BANK16  BANK17  BANK18  BANK19  BANK20  BANK21  BANK22  BANK23  BANK24  BANK25
      Params:         0       2       0       0       0       0       0       0       0       0       0       0       0       0       0       0       0       0       0       0       0       0       0       0       0       0       0
      Locals:         0       0       0       0       0       0       0       0       0       0       0       0       0       0       0       0       0       0       0       0       0       0       0       0       0       0       0
      Temps:          0       0       0       0       0       0       0       0       0       0       0       0       0       0       0       0       0       0       0       0       0       0       0       0       0       0       0
      Totals:         0       2       0       0       0       0       0       0       0       0       0       0       0       0       0       0       0       0       0       0       0       0       0       0       0       0       0
Total ram usage:        2 bytes
 Hardware stack levels used:    1
 Hardware stack levels required when called:    6
 This function calls:
		Nothing
 This function is called by:
		_i2c_open
 This function uses a non-reentrant model


 *************** function _i2c1_driver_open *****************
 Defined at:
		line 83 in file "mcc_generated_files/i2c1_driver.c"
 Parameters:    Size  Location     Type
		None
 Auto vars:     Size  Location     Type
		None
 Return value:  Size  Location     Type
		None               void
 Registers used:
		wreg, status,2
 Tracked objects:
		On entry : 
		On exit  : 
		Unchanged: 
 Data sizes:     COMMON   BANK0   BANK1   BANK2   BANK3   BANK4   BANK5   BANK6   BANK7   BANK8   BANK9  BANK10  BANK11  BANK12  BANK13  BANK14  BANK15  BANK16  BANK17  BANK18  BANK19  BANK20  BANK21  BANK22  BANK23  BANK24  BANK25
      Params:         0       0       0       0       0       0       0       0       0       0       0       0       0       0       0       0       0       0       0       0       0       0       0       0       0       0       0
      Locals:         0       0       0       0       0       0       0       0       0       0       0       0       0       0       0       0       0       0       0       0       0       0       0       0       0       0       0
      Temps:          0       0       0       0       0       0       0       0       0       0       0       0       0       0       0       0       0       0       0       0       0       0       0       0       0       0       0
      Totals:         0       0       0       0       0       0       0       0       0       0       0       0       0       0       0       0       0       0       0       0       0       0       0       0       0       0       0
Total ram usage:        0 bytes
 Hardware stack levels used:    1
 Hardware stack levels required when called:    6
 This function calls:
		Nothing
 This function is called by:
		_i2c_open
 This function uses a non-reentrant model


 *************** function _drv_reset *****************
 Defined at:
		line 23 in file "drv2665.c"
 Parameters:    Size  Location     Type
		None
 Auto vars:     Size  Location     Type
		None
 Return value:  Size  Location     Type
                  1    wreg      void 
 Registers used:
		wreg, fsr0l, fsr0h, fsr1l, fsr1h, status,2, status,0, pclath, cstack
 Tracked objects:
		On entry : 
		On exit  : 
		Unchanged: 
 Data sizes:     COMMON   BANK0   BANK1   BANK2   BANK3   BANK4   BANK5   BANK6   BANK7   BANK8   BANK9  BANK10  BANK11  BANK12  BANK13  BANK14  BANK15  BANK16  BANK17  BANK18  BANK19  BANK20  BANK21  BANK22  BANK23  BANK24  BANK25
      Params:         0       0       0       0       0       0       0       0       0       0       0       0       0       0       0       0       0       0       0       0       0       0       0       0       0       0       0
      Locals:         0       0       0       0       0       0       0       0       0       0       0       0       0       0       0       0       0       0       0       0       0       0       0       0       0       0       0
      Temps:          0       0       1       0       0       0       0       0       0       0       0       0       0       0       0       0       0       0       0       0       0       0       0       0       0       0       0
      Totals:         0       0       1       0       0       0       0       0       0       0       0       0       0       0       0       0       0       0       0       0       0       0       0       0       0       0       0
Total ram usage:        1 bytes
 Hardware stack levels used:    1
 Hardware stack levels required when called:   13
 This function calls:
		_drv_write
 This function is called by:
		_drv_init
 This function uses a non-reentrant model


 *************** function _execCmd *****************
 Defined at:
		line 70 in file "cmd_parser.c"
 Parameters:    Size  Location     Type
  s               1    wreg     PTR struct CMD_STRUCT
		 -> cmd_struct(21), 
 Auto vars:     Size  Location     Type
  s               1   52[BANK1 ] PTR struct CMD_STRUCT
		 -> cmd_struct(21), 
 Return value:  Size  Location     Type
                  2  958[None  ] int 
 Registers used:
		wreg, fsr0l, fsr0h, fsr1l, fsr1h, status,2, status,0, pclath, cstack
 Tracked objects:
		On entry : 
		On exit  : 
		Unchanged: 
 Data sizes:     COMMON   BANK0   BANK1   BANK2   BANK3   BANK4   BANK5   BANK6   BANK7   BANK8   BANK9  BANK10  BANK11  BANK12  BANK13  BANK14  BANK15  BANK16  BANK17  BANK18  BANK19  BANK20  BANK21  BANK22  BANK23  BANK24  BANK25
      Params:         0       0       0       0       0       0       0       0       0       0       0       0       0       0       0       0       0       0       0       0       0       0       0       0       0       0       0
      Locals:         0       0       1       0       0       0       0       0       0       0       0       0       0       0       0       0       0       0       0       0       0       0       0       0       0       0       0
      Temps:          0       0       0       0       0       0       0       0       0       0       0       0       0       0       0       0       0       0       0       0       0       0       0       0       0       0       0
      Totals:         0       0       1       0       0       0       0       0       0       0       0       0       0       0       0       0       0       0       0       0       0       0       0       0       0       0       0
Total ram usage:        1 bytes
 Hardware stack levels used:    1
 Hardware stack levels required when called:   16
 This function calls:
		_commCheck
		_doMove
		_getActive
		_getMotionStatus
		_getMoveMask
		_getPosition
		_printf
		_setActive
		_setDrvGain
		_setDrvPeak
		_setDrvPiezoOnTime
		_setHeaterPostTime
		_setHeaterPreTime
		_setHeaterToggle
		_setLEDBrightnessRange
		_setLEDPwr
		_setMoveMask
		_startAbsMove
		_startRelMove
		_zeroPosition
 This function is called by:
		_main
 This function uses a non-reentrant model


 *************** function _zeroPosition *****************
 Defined at:
		line 372 in file "main.c"
 Parameters:    Size  Location     Type
		None
 Auto vars:     Size  Location     Type
  i               2   41[BANK0 ] int 
 Return value:  Size  Location     Type
                  2   21[BANK1 ] int 
 Registers used:
		wreg, fsr0l, fsr0h, fsr1l, fsr1h, status,2, status,0, pclath, cstack
 Tracked objects:
		On entry : 
		On exit  : 
		Unchanged: 
 Data sizes:     COMMON   BANK0   BANK1   BANK2   BANK3   BANK4   BANK5   BANK6   BANK7   BANK8   BANK9  BANK10  BANK11  BANK12  BANK13  BANK14  BANK15  BANK16  BANK17  BANK18  BANK19  BANK20  BANK21  BANK22  BANK23  BANK24  BANK25
      Params:         0       0       2       0       0       0       0       0       0       0       0       0       0       0       0       0       0       0       0       0       0       0       0       0       0       0       0
      Locals:         0       2       0       0       0       0       0       0       0       0       0       0       0       0       0       0       0       0       0       0       0       0       0       0       0       0       0
      Temps:          0       0       8       0       0       0       0       0       0       0       0       0       0       0       0       0       0       0       0       0       0       0       0       0       0       0       0
      Totals:         0       2      10       0       0       0       0       0       0       0       0       0       0       0       0       0       0       0       0       0       0       0       0       0       0       0       0
Total ram usage:       12 bytes
 Hardware stack levels used:    1
 Hardware stack levels required when called:    9
 This function calls:
		_printf
 This function is called by:
		_execCmd
 This function uses a non-reentrant model


 *************** function _startRelMove *****************
 Defined at:
		line 279 in file "main.c"
 Parameters:    Size  Location     Type
  steps           2   21[BANK1 ] int 
 Auto vars:     Size  Location     Type
		None
 Return value:  Size  Location     Type
                  2   21[BANK1 ] int 
 Registers used:
		wreg, fsr0l, fsr0h, fsr1l, fsr1h, status,2, status,0, pclath, cstack
 Tracked objects:
		On entry : 
		On exit  : 
		Unchanged: 
 Data sizes:     COMMON   BANK0   BANK1   BANK2   BANK3   BANK4   BANK5   BANK6   BANK7   BANK8   BANK9  BANK10  BANK11  BANK12  BANK13  BANK14  BANK15  BANK16  BANK17  BANK18  BANK19  BANK20  BANK21  BANK22  BANK23  BANK24  BANK25
      Params:         0       0       2       0       0       0       0       0       0       0       0       0       0       0       0       0       0       0       0       0       0       0       0       0       0       0       0
      Locals:         0       0       0       0       0       0       0       0       0       0       0       0       0       0       0       0       0       0       0       0       0       0       0       0       0       0       0
      Temps:          0       0       0       0       0       0       0       0       0       0       0       0       0       0       0       0       0       0       0       0       0       0       0       0       0       0       0
      Totals:         0       0       2       0       0       0       0       0       0       0       0       0       0       0       0       0       0       0       0       0       0       0       0       0       0       0       0
Total ram usage:        2 bytes
 Hardware stack levels used:    1
 Hardware stack levels required when called:    9
 This function calls:
		_printf
 This function is called by:
		_execCmd
 This function uses a non-reentrant model


 *************** function _startAbsMove *****************
 Defined at:
		line 285 in file "main.c"
 Parameters:    Size  Location     Type
  steps           2   21[BANK1 ] int 
 Auto vars:     Size  Location     Type
		None
 Return value:  Size  Location     Type
                  2   21[BANK1 ] int 
 Registers used:
		wreg, fsr0l, fsr0h, fsr1l, fsr1h, status,2, status,0, pclath, cstack
 Tracked objects:
		On entry : 
		On exit  : 
		Unchanged: 
 Data sizes:     COMMON   BANK0   BANK1   BANK2   BANK3   BANK4   BANK5   BANK6   BANK7   BANK8   BANK9  BANK10  BANK11  BANK12  BANK13  BANK14  BANK15  BANK16  BANK17  BANK18  BANK19  BANK20  BANK21  BANK22  BANK23  BANK24  BANK25
      Params:         0       0       2       0       0       0       0       0       0       0       0       0       0       0       0       0       0       0       0       0       0       0       0       0       0       0       0
      Locals:         0       0       0       0       0       0       0       0       0       0       0       0       0       0       0       0       0       0       0       0       0       0       0       0       0       0       0
      Temps:          0       1       0       0       0       0       0       0       0       0       0       0       0       0       0       0       0       0       0       0       0       0       0       0       0       0       0
      Totals:         0       1       2       0       0       0       0       0       0       0       0       0       0       0       0       0       0       0       0       0       0       0       0       0       0       0       0
Total ram usage:        3 bytes
 Hardware stack levels used:    1
 Hardware stack levels required when called:    9
 This function calls:
		_printf
 This function is called by:
		_execCmd
 This function uses a non-reentrant model


 *************** function _setMoveMask *****************
 Defined at:
		line 494 in file "main.c"
 Parameters:    Size  Location     Type
  probeNum        2   21[BANK1 ] int 
  onOff           2   23[BANK1 ] int 
 Auto vars:     Size  Location     Type
		None
 Return value:  Size  Location     Type
                  2   21[BANK1 ] int 
 Registers used:
		wreg, fsr0l, fsr0h, fsr1l, fsr1h, status,2, status,0, pclath, cstack
 Tracked objects:
		On entry : 
		On exit  : 
		Unchanged: 
 Data sizes:     COMMON   BANK0   BANK1   BANK2   BANK3   BANK4   BANK5   BANK6   BANK7   BANK8   BANK9  BANK10  BANK11  BANK12  BANK13  BANK14  BANK15  BANK16  BANK17  BANK18  BANK19  BANK20  BANK21  BANK22  BANK23  BANK24  BANK25
      Params:         0       0       4       0       0       0       0       0       0       0       0       0       0       0       0       0       0       0       0       0       0       0       0       0       0       0       0
      Locals:         0       0       0       0       0       0       0       0       0       0       0       0       0       0       0       0       0       0       0       0       0       0       0       0       0       0       0
      Temps:          0       4       0       0       0       0       0       0       0       0       0       0       0       0       0       0       0       0       0       0       0       0       0       0       0       0       0
      Totals:         0       4       4       0       0       0       0       0       0       0       0       0       0       0       0       0       0       0       0       0       0       0       0       0       0       0       0
Total ram usage:        8 bytes
 Hardware stack levels used:    1
 Hardware stack levels required when called:    9
 This function calls:
		_printf
 This function is called by:
		_execCmd
 This function uses a non-reentrant model


 *************** function _setLEDPwr *****************
 Defined at:
		line 449 in file "main.c"
 Parameters:    Size  Location     Type
  pwr             2   21[BANK1 ] int 
  topOrBottom     2   23[BANK1 ] int 
 Auto vars:     Size  Location     Type
		None
 Return value:  Size  Location     Type
                  2   21[BANK1 ] int 
 Registers used:
		wreg, fsr0l, fsr0h, fsr1l, fsr1h, status,2, status,0, pclath, cstack
 Tracked objects:
		On entry : 
		On exit  : 
		Unchanged: 
 Data sizes:     COMMON   BANK0   BANK1   BANK2   BANK3   BANK4   BANK5   BANK6   BANK7   BANK8   BANK9  BANK10  BANK11  BANK12  BANK13  BANK14  BANK15  BANK16  BANK17  BANK18  BANK19  BANK20  BANK21  BANK22  BANK23  BANK24  BANK25
      Params:         0       0       4       0       0       0       0       0       0       0       0       0       0       0       0       0       0       0       0       0       0       0       0       0       0       0       0
      Locals:         0       0       0       0       0       0       0       0       0       0       0       0       0       0       0       0       0       0       0       0       0       0       0       0       0       0       0
      Temps:          0       0       0       0       0       0       0       0       0       0       0       0       0       0       0       0       0       0       0       0       0       0       0       0       0       0       0
      Totals:         0       0       4       0       0       0       0       0       0       0       0       0       0       0       0       0       0       0       0       0       0       0       0       0       0       0       0
Total ram usage:        4 bytes
 Hardware stack levels used:    1
 Hardware stack levels required when called:    9
 This function calls:
		_LEDsPwr
		_printf
 This function is called by:
		_execCmd
 This function uses a non-reentrant model


 *************** function _LEDsPwr *****************
 Defined at:
		line 12 in file "LEDcomm.c"
 Parameters:    Size  Location     Type
  pwr             2   36[BANK0 ] int 
  topOrBottom     2   38[BANK0 ] int 
 Auto vars:     Size  Location     Type
  pwrAll          4    0[BANK1 ] unsigned long 
 Return value:  Size  Location     Type
                  1    wreg      void 
 Registers used:
		wreg, status,2, status,0, pclath, cstack
 Tracked objects:
		On entry : 
		On exit  : 
		Unchanged: 
 Data sizes:     COMMON   BANK0   BANK1   BANK2   BANK3   BANK4   BANK5   BANK6   BANK7   BANK8   BANK9  BANK10  BANK11  BANK12  BANK13  BANK14  BANK15  BANK16  BANK17  BANK18  BANK19  BANK20  BANK21  BANK22  BANK23  BANK24  BANK25
      Params:         0       4       0       0       0       0       0       0       0       0       0       0       0       0       0       0       0       0       0       0       0       0       0       0       0       0       0
      Locals:         0       0       4       0       0       0       0       0       0       0       0       0       0       0       0       0       0       0       0       0       0       0       0       0       0       0       0
      Temps:          0       6       0       0       0       0       0       0       0       0       0       0       0       0       0       0       0       0       0       0       0       0       0       0       0       0       0
      Totals:         0      10       4       0       0       0       0       0       0       0       0       0       0       0       0       0       0       0       0       0       0       0       0       0       0       0       0
Total ram usage:       14 bytes
 Hardware stack levels used:    1
 Hardware stack levels required when called:    8
 This function calls:
		_send_2length_2bytes_IK
 This function is called by:
		_main_initialize
		_setLEDPwr
 This function uses a non-reentrant model


 *************** function _setLEDBrightnessRange *****************
 Defined at:
		line 441 in file "main.c"
 Parameters:    Size  Location     Type
  r               2   21[BANK1 ] int 
  tOB             2   23[BANK1 ] int 
 Auto vars:     Size  Location     Type
		None
 Return value:  Size  Location     Type
                  2   21[BANK1 ] int 
 Registers used:
		wreg, fsr0l, fsr0h, fsr1l, fsr1h, status,2, status,0, pclath, cstack
 Tracked objects:
		On entry : 
		On exit  : 
		Unchanged: 
 Data sizes:     COMMON   BANK0   BANK1   BANK2   BANK3   BANK4   BANK5   BANK6   BANK7   BANK8   BANK9  BANK10  BANK11  BANK12  BANK13  BANK14  BANK15  BANK16  BANK17  BANK18  BANK19  BANK20  BANK21  BANK22  BANK23  BANK24  BANK25
      Params:         0       0       4       0       0       0       0       0       0       0       0       0       0       0       0       0       0       0       0       0       0       0       0       0       0       0       0
      Locals:         0       0       0       0       0       0       0       0       0       0       0       0       0       0       0       0       0       0       0       0       0       0       0       0       0       0       0
      Temps:          0       0       0       0       0       0       0       0       0       0       0       0       0       0       0       0       0       0       0       0       0       0       0       0       0       0       0
      Totals:         0       0       4       0       0       0       0       0       0       0       0       0       0       0       0       0       0       0       0       0       0       0       0       0       0       0       0
Total ram usage:        4 bytes
 Hardware stack levels used:    1
 Hardware stack levels required when called:    9
 This function calls:
		_LED_setBrightnessRange
		_printf
 This function is called by:
		_execCmd
 This function uses a non-reentrant model


 *************** function _setHeaterToggle *****************
 Defined at:
		line 458 in file "main.c"
 Parameters:    Size  Location     Type
  num             2   21[BANK1 ] int 
  topOrB          2   23[BANK1 ] int 
 Auto vars:     Size  Location     Type
		None
 Return value:  Size  Location     Type
                  2   21[BANK1 ] int 
 Registers used:
		wreg, fsr0l, fsr0h, fsr1l, fsr1h, status,2, status,0, pclath, cstack
 Tracked objects:
		On entry : 
		On exit  : 
		Unchanged: 
 Data sizes:     COMMON   BANK0   BANK1   BANK2   BANK3   BANK4   BANK5   BANK6   BANK7   BANK8   BANK9  BANK10  BANK11  BANK12  BANK13  BANK14  BANK15  BANK16  BANK17  BANK18  BANK19  BANK20  BANK21  BANK22  BANK23  BANK24  BANK25
      Params:         0       0       4       0       0       0       0       0       0       0       0       0       0       0       0       0       0       0       0       0       0       0       0       0       0       0       0
      Locals:         0       0       0       0       0       0       0       0       0       0       0       0       0       0       0       0       0       0       0       0       0       0       0       0       0       0       0
      Temps:          0       0       4       0       0       0       0       0       0       0       0       0       0       0       0       0       0       0       0       0       0       0       0       0       0       0       0
      Totals:         0       0       8       0       0       0       0       0       0       0       0       0       0       0       0       0       0       0       0       0       0       0       0       0       0       0       0
Total ram usage:        8 bytes
 Hardware stack levels used:    1
 Hardware stack levels required when called:    9
 This function calls:
		_LEDsOn
		_printf
 This function is called by:
		_execCmd
 This function uses a non-reentrant model


 *************** function _setHeaterPreTime *****************
 Defined at:
		line 425 in file "main.c"
 Parameters:    Size  Location     Type
  t               2   29[BANK1 ] int 
 Auto vars:     Size  Location     Type
		None
 Return value:  Size  Location     Type
                  2   29[BANK1 ] int 
 Registers used:
		wreg, fsr0l, fsr0h, fsr1l, fsr1h, status,2, status,0, pclath, cstack
 Tracked objects:
		On entry : 
		On exit  : 
		Unchanged: 
 Data sizes:     COMMON   BANK0   BANK1   BANK2   BANK3   BANK4   BANK5   BANK6   BANK7   BANK8   BANK9  BANK10  BANK11  BANK12  BANK13  BANK14  BANK15  BANK16  BANK17  BANK18  BANK19  BANK20  BANK21  BANK22  BANK23  BANK24  BANK25
      Params:         0       0       2       0       0       0       0       0       0       0       0       0       0       0       0       0       0       0       0       0       0       0       0       0       0       0       0
      Locals:         0       0       0       0       0       0       0       0       0       0       0       0       0       0       0       0       0       0       0       0       0       0       0       0       0       0       0
      Temps:          0       0       2       0       0       0       0       0       0       0       0       0       0       0       0       0       0       0       0       0       0       0       0       0       0       0       0
      Totals:         0       0       4       0       0       0       0       0       0       0       0       0       0       0       0       0       0       0       0       0       0       0       0       0       0       0       0
Total ram usage:        4 bytes
 Hardware stack levels used:    1
 Hardware stack levels required when called:    9
 This function calls:
		_TMR0_Load8bitPeriod
		___awtoft
		___ftadd
		___ftmul
		___fttol
		_printf
 This function is called by:
		_execCmd
 This function uses a non-reentrant model


 *************** function _setHeaterPostTime *****************
 Defined at:
		line 431 in file "main.c"
 Parameters:    Size  Location     Type
  t               2   29[BANK1 ] int 
 Auto vars:     Size  Location     Type
		None
 Return value:  Size  Location     Type
                  2   29[BANK1 ] int 
 Registers used:
		wreg, fsr0l, fsr0h, fsr1l, fsr1h, status,2, status,0, pclath, cstack
 Tracked objects:
		On entry : 
		On exit  : 
		Unchanged: 
 Data sizes:     COMMON   BANK0   BANK1   BANK2   BANK3   BANK4   BANK5   BANK6   BANK7   BANK8   BANK9  BANK10  BANK11  BANK12  BANK13  BANK14  BANK15  BANK16  BANK17  BANK18  BANK19  BANK20  BANK21  BANK22  BANK23  BANK24  BANK25
      Params:         0       0       2       0       0       0       0       0       0       0       0       0       0       0       0       0       0       0       0       0       0       0       0       0       0       0       0
      Locals:         0       0       0       0       0       0       0       0       0       0       0       0       0       0       0       0       0       0       0       0       0       0       0       0       0       0       0
      Temps:          0       0       0       0       0       0       0       0       0       0       0       0       0       0       0       0       0       0       0       0       0       0       0       0       0       0       0
      Totals:         0       0       2       0       0       0       0       0       0       0       0       0       0       0       0       0       0       0       0       0       0       0       0       0       0       0       0
Total ram usage:        2 bytes
 Hardware stack levels used:    1
 Hardware stack levels required when called:    9
 This function calls:
		_TMR2_LoadPeriodRegister
		___awtoft
		___ftadd
		___ftmul
		___fttol
		_printf
 This function is called by:
		_execCmd
 This function uses a non-reentrant model


 *************** function _TMR2_LoadPeriodRegister *****************
 Defined at:
		line 112 in file "mcc_generated_files/tmr2.c"
 Parameters:    Size  Location     Type
  periodVal       1    wreg     unsigned char 
 Auto vars:     Size  Location     Type
  periodVal       1   17[BANK0 ] unsigned char 
 Return value:  Size  Location     Type
                  1    wreg      void 
 Registers used:
		wreg
 Tracked objects:
		On entry : 
		On exit  : 
		Unchanged: 
 Data sizes:     COMMON   BANK0   BANK1   BANK2   BANK3   BANK4   BANK5   BANK6   BANK7   BANK8   BANK9  BANK10  BANK11  BANK12  BANK13  BANK14  BANK15  BANK16  BANK17  BANK18  BANK19  BANK20  BANK21  BANK22  BANK23  BANK24  BANK25
      Params:         0       0       0       0       0       0       0       0       0       0       0       0       0       0       0       0       0       0       0       0       0       0       0       0       0       0       0
      Locals:         0       1       0       0       0       0       0       0       0       0       0       0       0       0       0       0       0       0       0       0       0       0       0       0       0       0       0
      Temps:          0       0       0       0       0       0       0       0       0       0       0       0       0       0       0       0       0       0       0       0       0       0       0       0       0       0       0
      Totals:         0       1       0       0       0       0       0       0       0       0       0       0       0       0       0       0       0       0       0       0       0       0       0       0       0       0       0
Total ram usage:        1 bytes
 Hardware stack levels used:    1
 Hardware stack levels required when called:    6
 This function calls:
		Nothing
 This function is called by:
		_main_initialize
		_setHeaterPostTime
 This function uses a non-reentrant model


 *************** function _setDrvPiezoOnTime *****************
 Defined at:
		line 414 in file "main.c"
 Parameters:    Size  Location     Type
  t               2   29[BANK1 ] int 
 Auto vars:     Size  Location     Type
		None
 Return value:  Size  Location     Type
                  2   29[BANK1 ] int 
 Registers used:
		wreg, fsr0l, fsr0h, fsr1l, fsr1h, status,2, status,0, pclath, cstack
 Tracked objects:
		On entry : 
		On exit  : 
		Unchanged: 
 Data sizes:     COMMON   BANK0   BANK1   BANK2   BANK3   BANK4   BANK5   BANK6   BANK7   BANK8   BANK9  BANK10  BANK11  BANK12  BANK13  BANK14  BANK15  BANK16  BANK17  BANK18  BANK19  BANK20  BANK21  BANK22  BANK23  BANK24  BANK25
      Params:         0       0       2       0       0       0       0       0       0       0       0       0       0       0       0       0       0       0       0       0       0       0       0       0       0       0       0
      Locals:         0       0       0       0       0       0       0       0       0       0       0       0       0       0       0       0       0       0       0       0       0       0       0       0       0       0       0
      Temps:          0       0       2       0       0       0       0       0       0       0       0       0       0       0       0       0       0       0       0       0       0       0       0       0       0       0       0
      Totals:         0       0       4       0       0       0       0       0       0       0       0       0       0       0       0       0       0       0       0       0       0       0       0       0       0       0       0
Total ram usage:        4 bytes
 Hardware stack levels used:    1
 Hardware stack levels required when called:    9
 This function calls:
		_TMR0_Load8bitPeriod
		___awtoft
		___ftadd
		___ftmul
		___fttol
		_printf
 This function is called by:
		_execCmd
 This function uses a non-reentrant model


 *************** function ___fttol *****************
 Defined at:
		line 44 in file "C:\Program Files (x86)\Microchip\xc8\v1.45\sources\common\fttol.c"
 Parameters:    Size  Location     Type
  f1              3   15[BANK1 ] float 
 Auto vars:     Size  Location     Type
  lval            4   24[BANK1 ] unsigned long 
  exp1            1   28[BANK1 ] unsigned char 
  sign1           1   23[BANK1 ] unsigned char 
 Return value:  Size  Location     Type
                  4   15[BANK1 ] long 
 Registers used:
		wreg, status,2, status,0
 Tracked objects:
		On entry : 
		On exit  : 
		Unchanged: 
 Data sizes:     COMMON   BANK0   BANK1   BANK2   BANK3   BANK4   BANK5   BANK6   BANK7   BANK8   BANK9  BANK10  BANK11  BANK12  BANK13  BANK14  BANK15  BANK16  BANK17  BANK18  BANK19  BANK20  BANK21  BANK22  BANK23  BANK24  BANK25
      Params:         0       0       4       0       0       0       0       0       0       0       0       0       0       0       0       0       0       0       0       0       0       0       0       0       0       0       0
      Locals:         0       0       6       0       0       0       0       0       0       0       0       0       0       0       0       0       0       0       0       0       0       0       0       0       0       0       0
      Temps:          0       0       4       0       0       0       0       0       0       0       0       0       0       0       0       0       0       0       0       0       0       0       0       0       0       0       0
      Totals:         0       0      14       0       0       0       0       0       0       0       0       0       0       0       0       0       0       0       0       0       0       0       0       0       0       0       0
Total ram usage:       14 bytes
 Hardware stack levels used:    1
 Hardware stack levels required when called:    6
 This function calls:
		Nothing
 This function is called by:
		_main_initialize
		_setDrvPiezoOnTime
		_setHeaterPreTime
		_setHeaterPostTime
		_drv_outputSine
 This function uses a non-reentrant model


 *************** function ___ftmul *****************
 Defined at:
		line 62 in file "C:\Program Files (x86)\Microchip\xc8\v1.45\sources\common\ftmul.c"
 Parameters:    Size  Location     Type
  f1              3   31[BANK0 ] float 
  f2              3   34[BANK0 ] float 
 Auto vars:     Size  Location     Type
  f3_as_produc    3    1[BANK1 ] unsigned um
  sign            1    5[BANK1 ] unsigned char 
  cntr            1    4[BANK1 ] unsigned char 
  exp             1    0[BANK1 ] unsigned char 
 Return value:  Size  Location     Type
                  3   31[BANK0 ] float 
 Registers used:
		wreg, status,2, status,0, pclath, cstack
 Tracked objects:
		On entry : 
		On exit  : 
		Unchanged: 
 Data sizes:     COMMON   BANK0   BANK1   BANK2   BANK3   BANK4   BANK5   BANK6   BANK7   BANK8   BANK9  BANK10  BANK11  BANK12  BANK13  BANK14  BANK15  BANK16  BANK17  BANK18  BANK19  BANK20  BANK21  BANK22  BANK23  BANK24  BANK25
      Params:         0       6       0       0       0       0       0       0       0       0       0       0       0       0       0       0       0       0       0       0       0       0       0       0       0       0       0
      Locals:         0       0       6       0       0       0       0       0       0       0       0       0       0       0       0       0       0       0       0       0       0       0       0       0       0       0       0
      Temps:          0       4       0       0       0       0       0       0       0       0       0       0       0       0       0       0       0       0       0       0       0       0       0       0       0       0       0
      Totals:         0      10       6       0       0       0       0       0       0       0       0       0       0       0       0       0       0       0       0       0       0       0       0       0       0       0       0
Total ram usage:       16 bytes
 Hardware stack levels used:    1
 Hardware stack levels required when called:    7
 This function calls:
		___ftpack
 This function is called by:
		_main_initialize
		_setDrvPiezoOnTime
		_setHeaterPreTime
		_setHeaterPostTime
		_drv_outputSine
 This function uses a non-reentrant model


 *************** function ___ftadd *****************
 Defined at:
		line 86 in file "C:\Program Files (x86)\Microchip\xc8\v1.45\sources\common\ftadd.c"
 Parameters:    Size  Location     Type
  f1              3    6[BANK1 ] float 
  f2              3    9[BANK1 ] float 
 Auto vars:     Size  Location     Type
  exp1            1   14[BANK1 ] unsigned char 
  exp2            1   13[BANK1 ] unsigned char 
  sign            1   12[BANK1 ] unsigned char 
 Return value:  Size  Location     Type
                  3    6[BANK1 ] float 
 Registers used:
		wreg, status,2, status,0, pclath, cstack
 Tracked objects:
		On entry : 
		On exit  : 
		Unchanged: 
 Data sizes:     COMMON   BANK0   BANK1   BANK2   BANK3   BANK4   BANK5   BANK6   BANK7   BANK8   BANK9  BANK10  BANK11  BANK12  BANK13  BANK14  BANK15  BANK16  BANK17  BANK18  BANK19  BANK20  BANK21  BANK22  BANK23  BANK24  BANK25
      Params:         0       0       6       0       0       0       0       0       0       0       0       0       0       0       0       0       0       0       0       0       0       0       0       0       0       0       0
      Locals:         0       0       3       0       0       0       0       0       0       0       0       0       0       0       0       0       0       0       0       0       0       0       0       0       0       0       0
      Temps:          0       4       0       0       0       0       0       0       0       0       0       0       0       0       0       0       0       0       0       0       0       0       0       0       0       0       0
      Totals:         0       4       9       0       0       0       0       0       0       0       0       0       0       0       0       0       0       0       0       0       0       0       0       0       0       0       0
Total ram usage:       13 bytes
 Hardware stack levels used:    1
 Hardware stack levels required when called:    7
 This function calls:
		___ftpack
 This function is called by:
		_main_initialize
		_setDrvPiezoOnTime
		_setHeaterPreTime
		_setHeaterPostTime
 This function uses a non-reentrant model


 *************** function ___awtoft *****************
 Defined at:
		line 32 in file "C:\Program Files (x86)\Microchip\xc8\v1.45\sources\common\awtoft.c"
 Parameters:    Size  Location     Type
  c               2   25[BANK0 ] int 
 Auto vars:     Size  Location     Type
  sign            1   30[BANK0 ] unsigned char 
 Return value:  Size  Location     Type
                  3   25[BANK0 ] float 
 Registers used:
		wreg, status,2, status,0, pclath, cstack
 Tracked objects:
		On entry : 
		On exit  : 
		Unchanged: 
 Data sizes:     COMMON   BANK0   BANK1   BANK2   BANK3   BANK4   BANK5   BANK6   BANK7   BANK8   BANK9  BANK10  BANK11  BANK12  BANK13  BANK14  BANK15  BANK16  BANK17  BANK18  BANK19  BANK20  BANK21  BANK22  BANK23  BANK24  BANK25
      Params:         0       3       0       0       0       0       0       0       0       0       0       0       0       0       0       0       0       0       0       0       0       0       0       0       0       0       0
      Locals:         0       1       0       0       0       0       0       0       0       0       0       0       0       0       0       0       0       0       0       0       0       0       0       0       0       0       0
      Temps:          0       2       0       0       0       0       0       0       0       0       0       0       0       0       0       0       0       0       0       0       0       0       0       0       0       0       0
      Totals:         0       6       0       0       0       0       0       0       0       0       0       0       0       0       0       0       0       0       0       0       0       0       0       0       0       0       0
Total ram usage:        6 bytes
 Hardware stack levels used:    1
 Hardware stack levels required when called:    7
 This function calls:
		___ftpack
 This function is called by:
		_main_initialize
		_setDrvPiezoOnTime
		_setHeaterPreTime
		_setHeaterPostTime
		_drv_outputSine
 This function uses a non-reentrant model


 *************** function ___ftpack *****************
 Defined at:
		line 62 in file "C:\Program Files (x86)\Microchip\xc8\v1.45\sources\common\float.c"
 Parameters:    Size  Location     Type
  arg             3   17[BANK0 ] unsigned um
  exp             1   20[BANK0 ] unsigned char 
  sign            1   21[BANK0 ] unsigned char 
 Auto vars:     Size  Location     Type
		None
 Return value:  Size  Location     Type
                  3   17[BANK0 ] float 
 Registers used:
		wreg, status,2, status,0
 Tracked objects:
		On entry : 
		On exit  : 
		Unchanged: 
 Data sizes:     COMMON   BANK0   BANK1   BANK2   BANK3   BANK4   BANK5   BANK6   BANK7   BANK8   BANK9  BANK10  BANK11  BANK12  BANK13  BANK14  BANK15  BANK16  BANK17  BANK18  BANK19  BANK20  BANK21  BANK22  BANK23  BANK24  BANK25
      Params:         0       5       0       0       0       0       0       0       0       0       0       0       0       0       0       0       0       0       0       0       0       0       0       0       0       0       0
      Locals:         0       0       0       0       0       0       0       0       0       0       0       0       0       0       0       0       0       0       0       0       0       0       0       0       0       0       0
      Temps:          0       3       0       0       0       0       0       0       0       0       0       0       0       0       0       0       0       0       0       0       0       0       0       0       0       0       0
      Totals:         0       8       0       0       0       0       0       0       0       0       0       0       0       0       0       0       0       0       0       0       0       0       0       0       0       0       0
Total ram usage:        8 bytes
 Hardware stack levels used:    1
 Hardware stack levels required when called:    6
 This function calls:
		Nothing
 This function is called by:
		___awtoft
		___ftadd
		___ftmul
 This function uses a non-reentrant model


 *************** function _TMR0_Load8bitPeriod *****************
 Defined at:
		line 113 in file "mcc_generated_files/tmr0.c"
 Parameters:    Size  Location     Type
  periodVal       1    wreg     unsigned char 
 Auto vars:     Size  Location     Type
  periodVal       1   17[BANK0 ] unsigned char 
 Return value:  Size  Location     Type
                  1    wreg      void 
 Registers used:
		wreg
 Tracked objects:
		On entry : 
		On exit  : 
		Unchanged: 
 Data sizes:     COMMON   BANK0   BANK1   BANK2   BANK3   BANK4   BANK5   BANK6   BANK7   BANK8   BANK9  BANK10  BANK11  BANK12  BANK13  BANK14  BANK15  BANK16  BANK17  BANK18  BANK19  BANK20  BANK21  BANK22  BANK23  BANK24  BANK25
      Params:         0       0       0       0       0       0       0       0       0       0       0       0       0       0       0       0       0       0       0       0       0       0       0       0       0       0       0
      Locals:         0       1       0       0       0       0       0       0       0       0       0       0       0       0       0       0       0       0       0       0       0       0       0       0       0       0       0
      Temps:          0       0       0       0       0       0       0       0       0       0       0       0       0       0       0       0       0       0       0       0       0       0       0       0       0       0       0
      Totals:         0       1       0       0       0       0       0       0       0       0       0       0       0       0       0       0       0       0       0       0       0       0       0       0       0       0       0
Total ram usage:        1 bytes
 Hardware stack levels used:    1
 Hardware stack levels required when called:    6
 This function calls:
		Nothing
 This function is called by:
		_main_initialize
		_setDrvPiezoOnTime
		_setHeaterPreTime
 This function uses a non-reentrant model


 *************** function _setDrvPeak *****************
 Defined at:
		line 393 in file "main.c"
 Parameters:    Size  Location     Type
  pk              2   21[BANK1 ] int 
 Auto vars:     Size  Location     Type
		None
 Return value:  Size  Location     Type
                  2   21[BANK1 ] int 
 Registers used:
		wreg, fsr0l, fsr0h, fsr1l, fsr1h, status,2, status,0, pclath, cstack
 Tracked objects:
		On entry : 
		On exit  : 
		Unchanged: 
 Data sizes:     COMMON   BANK0   BANK1   BANK2   BANK3   BANK4   BANK5   BANK6   BANK7   BANK8   BANK9  BANK10  BANK11  BANK12  BANK13  BANK14  BANK15  BANK16  BANK17  BANK18  BANK19  BANK20  BANK21  BANK22  BANK23  BANK24  BANK25
      Params:         0       0       2       0       0       0       0       0       0       0       0       0       0       0       0       0       0       0       0       0       0       0       0       0       0       0       0
      Locals:         0       0       0       0       0       0       0       0       0       0       0       0       0       0       0       0       0       0       0       0       0       0       0       0       0       0       0
      Temps:          0       0       0       0       0       0       0       0       0       0       0       0       0       0       0       0       0       0       0       0       0       0       0       0       0       0       0
      Totals:         0       0       2       0       0       0       0       0       0       0       0       0       0       0       0       0       0       0       0       0       0       0       0       0       0       0       0
Total ram usage:        2 bytes
 Hardware stack levels used:    1
 Hardware stack levels required when called:    9
 This function calls:
		_printf
 This function is called by:
		_execCmd
 This function uses a non-reentrant model


 *************** function _setDrvGain *****************
 Defined at:
		line 400 in file "main.c"
 Parameters:    Size  Location     Type
  gain            2   21[BANK1 ] int 
 Auto vars:     Size  Location     Type
  setGain         2   24[BANK1 ] int 
 Return value:  Size  Location     Type
                  2   21[BANK1 ] int 
 Registers used:
		wreg, fsr0l, fsr0h, fsr1l, fsr1h, status,2, status,0, pclath, cstack
 Tracked objects:
		On entry : 
		On exit  : 
		Unchanged: 
 Data sizes:     COMMON   BANK0   BANK1   BANK2   BANK3   BANK4   BANK5   BANK6   BANK7   BANK8   BANK9  BANK10  BANK11  BANK12  BANK13  BANK14  BANK15  BANK16  BANK17  BANK18  BANK19  BANK20  BANK21  BANK22  BANK23  BANK24  BANK25
      Params:         0       0       2       0       0       0       0       0       0       0       0       0       0       0       0       0       0       0       0       0       0       0       0       0       0       0       0
      Locals:         0       0       2       0       0       0       0       0       0       0       0       0       0       0       0       0       0       0       0       0       0       0       0       0       0       0       0
      Temps:          0       0       1       0       0       0       0       0       0       0       0       0       0       0       0       0       0       0       0       0       0       0       0       0       0       0       0
      Totals:         0       0       5       0       0       0       0       0       0       0       0       0       0       0       0       0       0       0       0       0       0       0       0       0       0       0       0
Total ram usage:        5 bytes
 Hardware stack levels used:    1
 Hardware stack levels required when called:   13
 This function calls:
		_drv_write
		_printf
 This function is called by:
		_execCmd
 This function uses a non-reentrant model


 *************** function _setActive *****************
 Defined at:
		line 479 in file "main.c"
 Parameters:    Size  Location     Type
  probeNum        2   21[BANK1 ] int 
  onOff           2   23[BANK1 ] int 
 Auto vars:     Size  Location     Type
		None
 Return value:  Size  Location     Type
                  2   21[BANK1 ] int 
 Registers used:
		wreg, fsr0l, fsr0h, fsr1l, fsr1h, status,2, status,0, pclath, cstack
 Tracked objects:
		On entry : 
		On exit  : 
		Unchanged: 
 Data sizes:     COMMON   BANK0   BANK1   BANK2   BANK3   BANK4   BANK5   BANK6   BANK7   BANK8   BANK9  BANK10  BANK11  BANK12  BANK13  BANK14  BANK15  BANK16  BANK17  BANK18  BANK19  BANK20  BANK21  BANK22  BANK23  BANK24  BANK25
      Params:         0       0       4       0       0       0       0       0       0       0       0       0       0       0       0       0       0       0       0       0       0       0       0       0       0       0       0
      Locals:         0       0       0       0       0       0       0       0       0       0       0       0       0       0       0       0       0       0       0       0       0       0       0       0       0       0       0
      Temps:          0       0       8       0       0       0       0       0       0       0       0       0       0       0       0       0       0       0       0       0       0       0       0       0       0       0       0
      Totals:         0       0      12       0       0       0       0       0       0       0       0       0       0       0       0       0       0       0       0       0       0       0       0       0       0       0       0
Total ram usage:       12 bytes
 Hardware stack levels used:    1
 Hardware stack levels required when called:    9
 This function calls:
		_printf
 This function is called by:
		_execCmd
 This function uses a non-reentrant model


 *************** function _getPosition *****************
 Defined at:
		line 382 in file "main.c"
 Parameters:    Size  Location     Type
  a               2   21[BANK1 ] int 
 Auto vars:     Size  Location     Type
		None
 Return value:  Size  Location     Type
                  2   21[BANK1 ] int 
 Registers used:
		wreg, fsr0l, fsr0h, fsr1l, fsr1h, status,2, status,0, pclath, cstack
 Tracked objects:
		On entry : 
		On exit  : 
		Unchanged: 
 Data sizes:     COMMON   BANK0   BANK1   BANK2   BANK3   BANK4   BANK5   BANK6   BANK7   BANK8   BANK9  BANK10  BANK11  BANK12  BANK13  BANK14  BANK15  BANK16  BANK17  BANK18  BANK19  BANK20  BANK21  BANK22  BANK23  BANK24  BANK25
      Params:         0       0       2       0       0       0       0       0       0       0       0       0       0       0       0       0       0       0       0       0       0       0       0       0       0       0       0
      Locals:         0       0       0       0       0       0       0       0       0       0       0       0       0       0       0       0       0       0       0       0       0       0       0       0       0       0       0
      Temps:          0       4       0       0       0       0       0       0       0       0       0       0       0       0       0       0       0       0       0       0       0       0       0       0       0       0       0
      Totals:         0       4       2       0       0       0       0       0       0       0       0       0       0       0       0       0       0       0       0       0       0       0       0       0       0       0       0
Total ram usage:        6 bytes
 Hardware stack levels used:    1
 Hardware stack levels required when called:    9
 This function calls:
		_printf
 This function is called by:
		_execCmd
 This function uses a non-reentrant model


 *************** function _getMoveMask *****************
 Defined at:
		line 519 in file "main.c"
 Parameters:    Size  Location     Type
		None
 Auto vars:     Size  Location     Type
  i               2   23[BANK1 ] int 
 Return value:  Size  Location     Type
                  2   21[BANK1 ] int 
 Registers used:
		wreg, fsr0l, fsr0h, fsr1l, fsr1h, status,2, status,0, pclath, cstack
 Tracked objects:
		On entry : 
		On exit  : 
		Unchanged: 
 Data sizes:     COMMON   BANK0   BANK1   BANK2   BANK3   BANK4   BANK5   BANK6   BANK7   BANK8   BANK9  BANK10  BANK11  BANK12  BANK13  BANK14  BANK15  BANK16  BANK17  BANK18  BANK19  BANK20  BANK21  BANK22  BANK23  BANK24  BANK25
      Params:         0       0       2       0       0       0       0       0       0       0       0       0       0       0       0       0       0       0       0       0       0       0       0       0       0       0       0
      Locals:         0       0       2       0       0       0       0       0       0       0       0       0       0       0       0       0       0       0       0       0       0       0       0       0       0       0       0
      Temps:          0       4       0       0       0       0       0       0       0       0       0       0       0       0       0       0       0       0       0       0       0       0       0       0       0       0       0
      Totals:         0       4       4       0       0       0       0       0       0       0       0       0       0       0       0       0       0       0       0       0       0       0       0       0       0       0       0
Total ram usage:        8 bytes
 Hardware stack levels used:    1
 Hardware stack levels required when called:    9
 This function calls:
		_printf
 This function is called by:
		_execCmd
 This function uses a non-reentrant model


 *************** function _getMotionStatus *****************
 Defined at:
		line 526 in file "main.c"
 Parameters:    Size  Location     Type
		None
 Auto vars:     Size  Location     Type
		None
 Return value:  Size  Location     Type
                  2   21[BANK1 ] int 
 Registers used:
		wreg, fsr0l, fsr0h, fsr1l, fsr1h, status,2, status,0, pclath, cstack
 Tracked objects:
		On entry : 
		On exit  : 
		Unchanged: 
 Data sizes:     COMMON   BANK0   BANK1   BANK2   BANK3   BANK4   BANK5   BANK6   BANK7   BANK8   BANK9  BANK10  BANK11  BANK12  BANK13  BANK14  BANK15  BANK16  BANK17  BANK18  BANK19  BANK20  BANK21  BANK22  BANK23  BANK24  BANK25
      Params:         0       0       2       0       0       0       0       0       0       0       0       0       0       0       0       0       0       0       0       0       0       0       0       0       0       0       0
      Locals:         0       0       0       0       0       0       0       0       0       0       0       0       0       0       0       0       0       0       0       0       0       0       0       0       0       0       0
      Temps:          0       0       0       0       0       0       0       0       0       0       0       0       0       0       0       0       0       0       0       0       0       0       0       0       0       0       0
      Totals:         0       0       2       0       0       0       0       0       0       0       0       0       0       0       0       0       0       0       0       0       0       0       0       0       0       0       0
Total ram usage:        2 bytes
 Hardware stack levels used:    1
 Hardware stack levels required when called:    9
 This function calls:
		_printf
 This function is called by:
		_execCmd
 This function uses a non-reentrant model


 *************** function _getActive *****************
 Defined at:
		line 511 in file "main.c"
 Parameters:    Size  Location     Type
		None
 Auto vars:     Size  Location     Type
  i               2   23[BANK1 ] int 
 Return value:  Size  Location     Type
                  2   21[BANK1 ] int 
 Registers used:
		wreg, fsr0l, fsr0h, fsr1l, fsr1h, status,2, status,0, pclath, cstack
 Tracked objects:
		On entry : 
		On exit  : 
		Unchanged: 
 Data sizes:     COMMON   BANK0   BANK1   BANK2   BANK3   BANK4   BANK5   BANK6   BANK7   BANK8   BANK9  BANK10  BANK11  BANK12  BANK13  BANK14  BANK15  BANK16  BANK17  BANK18  BANK19  BANK20  BANK21  BANK22  BANK23  BANK24  BANK25
      Params:         0       0       2       0       0       0       0       0       0       0       0       0       0       0       0       0       0       0       0       0       0       0       0       0       0       0       0
      Locals:         0       0       2       0       0       0       0       0       0       0       0       0       0       0       0       0       0       0       0       0       0       0       0       0       0       0       0
      Temps:          0       4       0       0       0       0       0       0       0       0       0       0       0       0       0       0       0       0       0       0       0       0       0       0       0       0       0
      Totals:         0       4       4       0       0       0       0       0       0       0       0       0       0       0       0       0       0       0       0       0       0       0       0       0       0       0       0
Total ram usage:        8 bytes
 Hardware stack levels used:    1
 Hardware stack levels required when called:    9
 This function calls:
		_printf
 This function is called by:
		_execCmd
 This function uses a non-reentrant model


 *************** function _commCheck *****************
 Defined at:
		line 534 in file "main.c"
 Parameters:    Size  Location     Type
		None
 Auto vars:     Size  Location     Type
		None
 Return value:  Size  Location     Type
                  2   49[BANK1 ] int 
 Registers used:
		wreg, fsr0l, fsr0h, fsr1l, fsr1h, status,2, status,0, pclath, cstack
 Tracked objects:
		On entry : 
		On exit  : 
		Unchanged: 
 Data sizes:     COMMON   BANK0   BANK1   BANK2   BANK3   BANK4   BANK5   BANK6   BANK7   BANK8   BANK9  BANK10  BANK11  BANK12  BANK13  BANK14  BANK15  BANK16  BANK17  BANK18  BANK19  BANK20  BANK21  BANK22  BANK23  BANK24  BANK25
      Params:         0       0       2       0       0       0       0       0       0       0       0       0       0       0       0       0       0       0       0       0       0       0       0       0       0       0       0
      Locals:         0       0       0       0       0       0       0       0       0       0       0       0       0       0       0       0       0       0       0       0       0       0       0       0       0       0       0
      Temps:          0       0       1       0       0       0       0       0       0       0       0       0       0       0       0       0       0       0       0       0       0       0       0       0       0       0       0
      Totals:         0       0       3       0       0       0       0       0       0       0       0       0       0       0       0       0       0       0       0       0       0       0       0       0       0       0       0
Total ram usage:        3 bytes
 Hardware stack levels used:    1
 Hardware stack levels required when called:   13
 This function calls:
		_LED_testComm
		_LED_test_openshort
		_drv_read
		_printf
 This function is called by:
		_execCmd
 This function uses a non-reentrant model


 *************** function _LED_test_openshort *****************
 Defined at:
		line 95 in file "LEDcomm.c"
 Parameters:    Size  Location     Type
  type            2   21[BANK1 ] int 
  topOrBottom     2   23[BANK1 ] int 
 Auto vars:     Size  Location     Type
  j               2   30[BANK1 ] int 
  readData        4   26[BANK1 ] unsigned long 
 Return value:  Size  Location     Type
                  1    wreg      void 
 Registers used:
		wreg, fsr0l, fsr0h, fsr1l, fsr1h, status,2, status,0, pclath, cstack
 Tracked objects:
		On entry : 
		On exit  : 
		Unchanged: 
 Data sizes:     COMMON   BANK0   BANK1   BANK2   BANK3   BANK4   BANK5   BANK6   BANK7   BANK8   BANK9  BANK10  BANK11  BANK12  BANK13  BANK14  BANK15  BANK16  BANK17  BANK18  BANK19  BANK20  BANK21  BANK22  BANK23  BANK24  BANK25
      Params:         0       0       4       0       0       0       0       0       0       0       0       0       0       0       0       0       0       0       0       0       0       0       0       0       0       0       0
      Locals:         0       0       6       0       0       0       0       0       0       0       0       0       0       0       0       0       0       0       0       0       0       0       0       0       0       0       0
      Temps:          0       0       1       0       0       0       0       0       0       0       0       0       0       0       0       0       0       0       0       0       0       0       0       0       0       0       0
      Totals:         0       0      11       0       0       0       0       0       0       0       0       0       0       0       0       0       0       0       0       0       0       0       0       0       0       0       0
Total ram usage:       11 bytes
 Hardware stack levels used:    1
 Hardware stack levels required when called:    9
 This function calls:
		_LEDsOn
		_printf
		_send_2length_2bytes_IK
 This function is called by:
		_commCheck
 This function uses a non-reentrant model


 *************** function _LED_testComm *****************
 Defined at:
		line 151 in file "LEDcomm.c"
 Parameters:    Size  Location     Type
  topOrBottom     2   41[BANK1 ] int 
 Auto vars:     Size  Location     Type
  oldConfigReg    4   45[BANK1 ] long 
  readResult      2   43[BANK1 ] int 
 Return value:  Size  Location     Type
                  2   41[BANK1 ] int 
 Registers used:
		wreg, fsr0l, fsr0h, fsr1l, fsr1h, status,2, status,0, pclath, cstack
 Tracked objects:
		On entry : 
		On exit  : 
		Unchanged: 
 Data sizes:     COMMON   BANK0   BANK1   BANK2   BANK3   BANK4   BANK5   BANK6   BANK7   BANK8   BANK9  BANK10  BANK11  BANK12  BANK13  BANK14  BANK15  BANK16  BANK17  BANK18  BANK19  BANK20  BANK21  BANK22  BANK23  BANK24  BANK25
      Params:         0       0       2       0       0       0       0       0       0       0       0       0       0       0       0       0       0       0       0       0       0       0       0       0       0       0       0
      Locals:         0       0       6       0       0       0       0       0       0       0       0       0       0       0       0       0       0       0       0       0       0       0       0       0       0       0       0
      Temps:          0       2       0       0       0       0       0       0       0       0       0       0       0       0       0       0       0       0       0       0       0       0       0       0       0       0       0
      Totals:         0       2       8       0       0       0       0       0       0       0       0       0       0       0       0       0       0       0       0       0       0       0       0       0       0       0       0
Total ram usage:       10 bytes
 Hardware stack levels used:    1
 Hardware stack levels required when called:   11
 This function calls:
		_LED_readConfig
		_LED_setBrightnessRange
 This function is called by:
		_commCheck
 This function uses a non-reentrant model


 *************** function _LED_setBrightnessRange *****************
 Defined at:
		line 77 in file "LEDcomm.c"
 Parameters:    Size  Location     Type
  range           2   36[BANK0 ] int 
  topOrBottom     2   38[BANK0 ] int 
 Auto vars:     Size  Location     Type
  LED_configRe    4   40[BANK0 ] long 
 Return value:  Size  Location     Type
                  1    wreg      void 
 Registers used:
		wreg, status,2, status,0, pclath, cstack
 Tracked objects:
		On entry : 
		On exit  : 
		Unchanged: 
 Data sizes:     COMMON   BANK0   BANK1   BANK2   BANK3   BANK4   BANK5   BANK6   BANK7   BANK8   BANK9  BANK10  BANK11  BANK12  BANK13  BANK14  BANK15  BANK16  BANK17  BANK18  BANK19  BANK20  BANK21  BANK22  BANK23  BANK24  BANK25
      Params:         0       4       0       0       0       0       0       0       0       0       0       0       0       0       0       0       0       0       0       0       0       0       0       0       0       0       0
      Locals:         0       4       0       0       0       0       0       0       0       0       0       0       0       0       0       0       0       0       0       0       0       0       0       0       0       0       0
      Temps:          0       0      17       0       0       0       0       0       0       0       0       0       0       0       0       0       0       0       0       0       0       0       0       0       0       0       0
      Totals:         0       8      17       0       0       0       0       0       0       0       0       0       0       0       0       0       0       0       0       0       0       0       0       0       0       0       0
Total ram usage:       25 bytes
 Hardware stack levels used:    1
 Hardware stack levels required when called:    8
 This function calls:
		_send_2length_2bytes_IK
 This function is called by:
		_LED_testComm
		_main_initialize
		_setLEDBrightnessRange
 This function uses a non-reentrant model


 *************** function _LED_readConfig *****************
 Defined at:
		line 123 in file "LEDcomm.c"
 Parameters:    Size  Location     Type
  topOrBottom     2   37[BANK1 ] int 
 Auto vars:     Size  Location     Type
		None
 Return value:  Size  Location     Type
                  4   37[BANK1 ] long 
 Registers used:
		wreg, fsr0l, fsr0h, fsr1l, fsr1h, status,2, status,0, pclath, cstack
 Tracked objects:
		On entry : 
		On exit  : 
		Unchanged: 
 Data sizes:     COMMON   BANK0   BANK1   BANK2   BANK3   BANK4   BANK5   BANK6   BANK7   BANK8   BANK9  BANK10  BANK11  BANK12  BANK13  BANK14  BANK15  BANK16  BANK17  BANK18  BANK19  BANK20  BANK21  BANK22  BANK23  BANK24  BANK25
      Params:         0       0       4       0       0       0       0       0       0       0       0       0       0       0       0       0       0       0       0       0       0       0       0       0       0       0       0
      Locals:         0       0       0       0       0       0       0       0       0       0       0       0       0       0       0       0       0       0       0       0       0       0       0       0       0       0       0
      Temps:          0       1       0       0       0       0       0       0       0       0       0       0       0       0       0       0       0       0       0       0       0       0       0       0       0       0       0
      Totals:         0       1       4       0       0       0       0       0       0       0       0       0       0       0       0       0       0       0       0       0       0       0       0       0       0       0       0
Total ram usage:        5 bytes
 Hardware stack levels used:    1
 Hardware stack levels required when called:   10
 This function calls:
		_LED_getData
		_send_2length_2bytes_IK
 This function is called by:
		_LED_testComm
 This function uses a non-reentrant model


 *************** function _LED_getData *****************
 Defined at:
		line 129 in file "LEDcomm.c"
 Parameters:    Size  Location     Type
		None
 Auto vars:     Size  Location     Type
  j               2   35[BANK1 ] int 
  readData        4   31[BANK1 ] long 
 Return value:  Size  Location     Type
                  4   21[BANK1 ] long 
 Registers used:
		wreg, fsr0l, fsr0h, fsr1l, fsr1h, status,2, status,0, pclath, cstack
 Tracked objects:
		On entry : 
		On exit  : 
		Unchanged: 
 Data sizes:     COMMON   BANK0   BANK1   BANK2   BANK3   BANK4   BANK5   BANK6   BANK7   BANK8   BANK9  BANK10  BANK11  BANK12  BANK13  BANK14  BANK15  BANK16  BANK17  BANK18  BANK19  BANK20  BANK21  BANK22  BANK23  BANK24  BANK25
      Params:         0       0       4       0       0       0       0       0       0       0       0       0       0       0       0       0       0       0       0       0       0       0       0       0       0       0       0
      Locals:         0       0       6       0       0       0       0       0       0       0       0       0       0       0       0       0       0       0       0       0       0       0       0       0       0       0       0
      Temps:          0       0       6       0       0       0       0       0       0       0       0       0       0       0       0       0       0       0       0       0       0       0       0       0       0       0       0
      Totals:         0       0      16       0       0       0       0       0       0       0       0       0       0       0       0       0       0       0       0       0       0       0       0       0       0       0       0
Total ram usage:       16 bytes
 Hardware stack levels used:    1
 Hardware stack levels required when called:    9
 This function calls:
		_printf
 This function is called by:
		_LED_readConfig
 This function uses a non-reentrant model


 *************** function _doRelMove *****************
 Defined at:
		line 335 in file "main.c"
 Parameters:    Size  Location     Type
		None
 Auto vars:     Size  Location     Type
  j               2   54[BANK1 ] int 
 Return value:  Size  Location     Type
                  1    wreg      void 
 Registers used:
		wreg, fsr0l, fsr0h, fsr1l, fsr1h, status,2, status,0, pclath, cstack
 Tracked objects:
		On entry : 
		On exit  : 
		Unchanged: 
 Data sizes:     COMMON   BANK0   BANK1   BANK2   BANK3   BANK4   BANK5   BANK6   BANK7   BANK8   BANK9  BANK10  BANK11  BANK12  BANK13  BANK14  BANK15  BANK16  BANK17  BANK18  BANK19  BANK20  BANK21  BANK22  BANK23  BANK24  BANK25
      Params:         0       0       0       0       0       0       0       0       0       0       0       0       0       0       0       0       0       0       0       0       0       0       0       0       0       0       0
      Locals:         0       0       2       0       0       0       0       0       0       0       0       0       0       0       0       0       0       0       0       0       0       0       0       0       0       0       0
      Temps:          0       0      16       0       0       0       0       0       0       0       0       0       0       0       0       0       0       0       0       0       0       0       0       0       0       0       0
      Totals:         0       0      18       0       0       0       0       0       0       0       0       0       0       0       0       0       0       0       0       0       0       0       0       0       0       0       0
Total ram usage:       18 bytes
 Hardware stack levels used:    1
 Hardware stack levels required when called:   16
 This function calls:
		_doMove
		_printf
 This function is called by:
		_main
 This function uses a non-reentrant model


 *************** function _doAbsMove *****************
 Defined at:
		line 303 in file "main.c"
 Parameters:    Size  Location     Type
		None
 Auto vars:     Size  Location     Type
  i               2   42[BANK1 ] int 
  i               2   44[BANK1 ] int 
  i               2   40[BANK1 ] int 
  allThere        2   38[BANK1 ] int 
 Return value:  Size  Location     Type
                  1    wreg      void 
 Registers used:
		wreg, fsr0l, fsr0h, fsr1l, fsr1h, status,2, status,0, pclath, cstack
 Tracked objects:
		On entry : 
		On exit  : 
		Unchanged: 
 Data sizes:     COMMON   BANK0   BANK1   BANK2   BANK3   BANK4   BANK5   BANK6   BANK7   BANK8   BANK9  BANK10  BANK11  BANK12  BANK13  BANK14  BANK15  BANK16  BANK17  BANK18  BANK19  BANK20  BANK21  BANK22  BANK23  BANK24  BANK25
      Params:         0       0       0       0       0       0       0       0       0       0       0       0       0       0       0       0       0       0       0       0       0       0       0       0       0       0       0
      Locals:         0       0       8       0       0       0       0       0       0       0       0       0       0       0       0       0       0       0       0       0       0       0       0       0       0       0       0
      Temps:          0       0       0       0       0      28       0       0       0       0       0       0       0       0       0       0       0       0       0       0       0       0       0       0       0       0       0
      Totals:         0       0       8       0       0      28       0       0       0       0       0       0       0       0       0       0       0       0       0       0       0       0       0       0       0       0       0
Total ram usage:       36 bytes
 Hardware stack levels used:    1
 Hardware stack levels required when called:   16
 This function calls:
		_doMove
		_printf
 This function is called by:
		_main
 This function uses a non-reentrant model


 *************** function _doMove *****************
 Defined at:
		line 233 in file "main.c"
 Parameters:    Size  Location     Type
		None
 Auto vars:     Size  Location     Type
  t               2   36[BANK1 ] int 
  t               2   34[BANK1 ] int 
 Return value:  Size  Location     Type
                  2   31[BANK1 ] int 
 Registers used:
		wreg, fsr0l, fsr0h, fsr1l, fsr1h, status,2, status,0, pclath, cstack
 Tracked objects:
		On entry : 
		On exit  : 
		Unchanged: 
 Data sizes:     COMMON   BANK0   BANK1   BANK2   BANK3   BANK4   BANK5   BANK6   BANK7   BANK8   BANK9  BANK10  BANK11  BANK12  BANK13  BANK14  BANK15  BANK16  BANK17  BANK18  BANK19  BANK20  BANK21  BANK22  BANK23  BANK24  BANK25
      Params:         0       0       2       0       0       0       0       0       0       0       0       0       0       0       0       0       0       0       0       0       0       0       0       0       0       0       0
      Locals:         0       0       4       0       0       0       0       0       0       0       0       0       0       0       0       0       0       0       0       0       0       0       0       0       0       0       0
      Temps:          0       0       1       0       0       0       0       0       0       0       0       0       0       0       0       0       0       0       0       0       0       0       0       0       0       0       0
      Totals:         0       0       7       0       0       0       0       0       0       0       0       0       0       0       0       0       0       0       0       0       0       0       0       0       0       0       0
Total ram usage:        7 bytes
 Hardware stack levels used:    1
 Hardware stack levels required when called:   15
 This function calls:
		_LEDsOn
		_TMR0_StartTimer
		_TMR2_StartTimer
		_calcHeaterPins
		_drv_write_DC
		_printf
 This function is called by:
		_doAbsMove
		_doRelMove
		_execCmd
 This function uses a non-reentrant model


 *************** function _drv_write_DC *****************
 Defined at:
		line 106 in file "drv2665.c"
 Parameters:    Size  Location     Type
  val             2   24[BANK1 ] int 
  duration_ms     2   26[BANK1 ] int 
 Auto vars:     Size  Location     Type
  i               2   29[BANK1 ] int 
 Return value:  Size  Location     Type
                  1    wreg      void 
 Registers used:
		wreg, fsr0l, fsr0h, fsr1l, fsr1h, status,2, status,0, pclath, cstack
 Tracked objects:
		On entry : 
		On exit  : 
		Unchanged: 
 Data sizes:     COMMON   BANK0   BANK1   BANK2   BANK3   BANK4   BANK5   BANK6   BANK7   BANK8   BANK9  BANK10  BANK11  BANK12  BANK13  BANK14  BANK15  BANK16  BANK17  BANK18  BANK19  BANK20  BANK21  BANK22  BANK23  BANK24  BANK25
      Params:         0       0       4       0       0       0       0       0       0       0       0       0       0       0       0       0       0       0       0       0       0       0       0       0       0       0       0
      Locals:         0       0       2       0       0       0       0       0       0       0       0       0       0       0       0       0       0       0       0       0       0       0       0       0       0       0       0
      Temps:          0       0       1       0       0       0       0       0       0       0       0       0       0       0       0       0       0       0       0       0       0       0       0       0       0       0       0
      Totals:         0       0       7       0       0       0       0       0       0       0       0       0       0       0       0       0       0       0       0       0       0       0       0       0       0       0       0
Total ram usage:        7 bytes
 Hardware stack levels used:    1
 Hardware stack levels required when called:   14
 This function calls:
		___awdiv
		_drv_write
		_fifo_check
		_printf
 This function is called by:
		_doMove
 This function uses a non-reentrant model


 *************** function _fifo_check *****************
 Defined at:
		line 124 in file "drv2665.c"
 Parameters:    Size  Location     Type
		None
 Auto vars:     Size  Location     Type
  reply           1   23[BANK1 ] unsigned char 
 Return value:  Size  Location     Type
		None               void
 Registers used:
		wreg, fsr0l, fsr0h, fsr1l, fsr1h, status,2, status,0, pclath, cstack
 Tracked objects:
		On entry : 
		On exit  : 
		Unchanged: 
 Data sizes:     COMMON   BANK0   BANK1   BANK2   BANK3   BANK4   BANK5   BANK6   BANK7   BANK8   BANK9  BANK10  BANK11  BANK12  BANK13  BANK14  BANK15  BANK16  BANK17  BANK18  BANK19  BANK20  BANK21  BANK22  BANK23  BANK24  BANK25
      Params:         0       0       0       0       0       0       0       0       0       0       0       0       0       0       0       0       0       0       0       0       0       0       0       0       0       0       0
      Locals:         0       0       1       0       0       0       0       0       0       0       0       0       0       0       0       0       0       0       0       0       0       0       0       0       0       0       0
      Temps:          0       1       0       0       0       0       0       0       0       0       0       0       0       0       0       0       0       0       0       0       0       0       0       0       0       0       0
      Totals:         0       1       1       0       0       0       0       0       0       0       0       0       0       0       0       0       0       0       0       0       0       0       0       0       0       0       0
Total ram usage:        2 bytes
 Hardware stack levels used:    1
 Hardware stack levels required when called:   13
 This function calls:
		_drv_read
 This function is called by:
		_drv_write_DC
 This function uses a non-reentrant model


 *************** function _drv_read *****************
 Defined at:
		line 84 in file "drv2665.c"
 Parameters:    Size  Location     Type
  reg             1    wreg     unsigned char 
 Auto vars:     Size  Location     Type
  reg             1   43[BANK0 ] unsigned char 
  buff            1   44[BANK0 ] unsigned char 
 Return value:  Size  Location     Type
                  2   21[BANK1 ] int 
 Registers used:
		wreg, fsr0l, fsr0h, fsr1l, fsr1h, status,2, status,0, pclath, cstack
 Tracked objects:
		On entry : 
		On exit  : 
		Unchanged: 
 Data sizes:     COMMON   BANK0   BANK1   BANK2   BANK3   BANK4   BANK5   BANK6   BANK7   BANK8   BANK9  BANK10  BANK11  BANK12  BANK13  BANK14  BANK15  BANK16  BANK17  BANK18  BANK19  BANK20  BANK21  BANK22  BANK23  BANK24  BANK25
      Params:         0       0       2       0       0       0       0       0       0       0       0       0       0       0       0       0       0       0       0       0       0       0       0       0       0       0       0
      Locals:         0       2       0       0       0       0       0       0       0       0       0       0       0       0       0       0       0       0       0       0       0       0       0       0       0       0       0
      Temps:          0       2       0       0       0       0       0       0       0       0       0       0       0       0       0       0       0       0       0       0       0       0       0       0       0       0       0
      Totals:         0       4       2       0       0       0       0       0       0       0       0       0       0       0       0       0       0       0       0       0       0       0       0       0       0       0       0
Total ram usage:        6 bytes
 Hardware stack levels used:    1
 Hardware stack levels required when called:   12
 This function calls:
		_i2c_masterOperation
		_i2c_setBuffer
		_printf
 This function is called by:
		_commCheck
		_fifo_check
 This function uses a non-reentrant model


 *************** function _drv_write *****************
 Defined at:
		line 57 in file "drv2665.c"
 Parameters:    Size  Location     Type
  reg             1    wreg     unsigned char 
  data            1   41[BANK0 ] unsigned char 
 Auto vars:     Size  Location     Type
  reg             1   43[BANK0 ] unsigned char 
  buff            2   44[BANK0 ] unsigned char [2]
 Return value:  Size  Location     Type
                  1    wreg      void 
 Registers used:
		wreg, fsr0l, fsr0h, fsr1l, fsr1h, status,2, status,0, pclath, cstack
 Tracked objects:
		On entry : 
		On exit  : 
		Unchanged: 
 Data sizes:     COMMON   BANK0   BANK1   BANK2   BANK3   BANK4   BANK5   BANK6   BANK7   BANK8   BANK9  BANK10  BANK11  BANK12  BANK13  BANK14  BANK15  BANK16  BANK17  BANK18  BANK19  BANK20  BANK21  BANK22  BANK23  BANK24  BANK25
      Params:         0       1       0       0       0       0       0       0       0       0       0       0       0       0       0       0       0       0       0       0       0       0       0       0       0       0       0
      Locals:         0       3       0       0       0       0       0       0       0       0       0       0       0       0       0       0       0       0       0       0       0       0       0       0       0       0       0
      Temps:          0       1       0       0       0       0       0       0       0       0       0       0       0       0       0       0       0       0       0       0       0       0       0       0       0       0       0
      Totals:         0       5       0       0       0       0       0       0       0       0       0       0       0       0       0       0       0       0       0       0       0       0       0       0       0       0       0
Total ram usage:        5 bytes
 Hardware stack levels used:    1
 Hardware stack levels required when called:   12
 This function calls:
		_i2c_masterOperation
		_i2c_setBuffer
		_printf
 This function is called by:
		_setDrvGain
		_drv_init
		_drv_reset
		_drv_write_DC
		_drv_outputSine
		_drv_outputWave
 This function uses a non-reentrant model


 *************** function _printf *****************
 Defined at:
		line 464 in file "C:\Program Files (x86)\Microchip\xc8\v1.45\sources\common\doprnt.c"
 Parameters:    Size  Location     Type
  f               2    0[BANK1 ] PTR const unsigned char 
		 -> STR_80(23), STR_79(3), STR_55(17), STR_54(17), 
		 -> STR_53(18), STR_52(18), STR_51(17), STR_50(28), 
		 -> STR_49(9), STR_48(9), STR_47(25), STR_46(11), 
		 -> STR_45(8), STR_44(8), STR_43(8), STR_42(31), 
		 -> STR_41(11), STR_40(8), STR_39(8), STR_38(8), 
		 -> STR_37(26), STR_36(30), STR_35(2), STR_34(2), 
		 -> STR_33(2), STR_32(2), STR_31(4), STR_30(2), 
		 -> STR_29(4), STR_28(3), STR_27(3), STR_26(3), 
		 -> STR_25(3), STR_24(3), STR_23(27), STR_22(3), 
		 -> STR_21(3), STR_20(3), STR_19(3), STR_18(3), 
		 -> STR_17(3), STR_16(3), STR_15(3), STR_14(4), 
		 -> STR_13(3), STR_12(16), STR_11(11), STR_10(16), 
		 -> STR_9(3), STR_8(3), STR_7(3), STR_6(8), 
		 -> STR_5(13), STR_4(15), STR_3(16), STR_2(2), 
		 -> STR_1(4), 
 Auto vars:     Size  Location     Type
  val             4   14[BANK1 ] unsigned long 
  tmpval          4    0        struct .
  prec            2   12[BANK1 ] int 
  cp              2    0        PTR const unsigned char 
  len             2    0        unsigned int 
  c               1   20[BANK1 ] char 
  ap              1   19[BANK1 ] PTR void [1]
		 -> ?_printf(2), 
  flag            1   18[BANK1 ] unsigned char 
 Return value:  Size  Location     Type
                  2    0[BANK1 ] int 
 Registers used:
		wreg, fsr0l, fsr0h, fsr1l, fsr1h, status,2, status,0, pclath, cstack
 Tracked objects:
		On entry : 
		On exit  : 
		Unchanged: 
 Data sizes:     COMMON   BANK0   BANK1   BANK2   BANK3   BANK4   BANK5   BANK6   BANK7   BANK8   BANK9  BANK10  BANK11  BANK12  BANK13  BANK14  BANK15  BANK16  BANK17  BANK18  BANK19  BANK20  BANK21  BANK22  BANK23  BANK24  BANK25
      Params:         0       0       6       0       0       0       0       0       0       0       0       0       0       0       0       0       0       0       0       0       0       0       0       0       0       0       0
      Locals:         0       0       9       0       0       0       0       0       0       0       0       0       0       0       0       0       0       0       0       0       0       0       0       0       0       0       0
      Temps:          0       0       6       0       0       0       0       0       0       0       0       0       0       0       0       0       0       0       0       0       0       0       0       0       0       0       0
      Totals:         0       0      21       0       0       0       0       0       0       0       0       0       0       0       0       0       0       0       0       0       0       0       0       0       0       0       0
Total ram usage:       21 bytes
 Hardware stack levels used:    1
 Hardware stack levels required when called:    8
 This function calls:
		___lldiv
		___llmod
		_putch
 This function is called by:
		_LED_test_openshort
		_LED_getData
		_main
		_main_initialize
		_doMove
		_startRelMove
		_startAbsMove
		_doAbsMove
		_doRelMove
		_zeroPosition
		_getPosition
		_setDrvPeak
		_setDrvGain
		_setDrvPiezoOnTime
		_setHeaterPreTime
		_setHeaterPostTime
		_setLEDBrightnessRange
		_setLEDPwr
		_setHeaterToggle
		_setActive
		_setMoveMask
		_getActive
		_getMoveMask
		_getMotionStatus
		_commCheck
		_drv_init
		_drv_write
		_drv_read
		_drv_write_DC
		_execCmd
		_stop
 This function uses a non-reentrant model


 *************** function _putch *****************
 Defined at:
		line 156 in file "mcc_generated_files/eusart.c"
 Parameters:    Size  Location     Type
  txData          1    wreg     unsigned char 
 Auto vars:     Size  Location     Type
  txData          1   19[BANK0 ] unsigned char 
 Return value:  Size  Location     Type
                  1    wreg      void 
 Registers used:
		wreg, fsr1l, fsr1h, status,2, status,0, pclath, cstack
 Tracked objects:
		On entry : 
		On exit  : 
		Unchanged: 
 Data sizes:     COMMON   BANK0   BANK1   BANK2   BANK3   BANK4   BANK5   BANK6   BANK7   BANK8   BANK9  BANK10  BANK11  BANK12  BANK13  BANK14  BANK15  BANK16  BANK17  BANK18  BANK19  BANK20  BANK21  BANK22  BANK23  BANK24  BANK25
      Params:         0       0       0       0       0       0       0       0       0       0       0       0       0       0       0       0       0       0       0       0       0       0       0       0       0       0       0
      Locals:         0       1       0       0       0       0       0       0       0       0       0       0       0       0       0       0       0       0       0       0       0       0       0       0       0       0       0
      Temps:          0       0       0       0       0       0       0       0       0       0       0       0       0       0       0       0       0       0       0       0       0       0       0       0       0       0       0
      Totals:         0       1       0       0       0       0       0       0       0       0       0       0       0       0       0       0       0       0       0       0       0       0       0       0       0       0       0
Total ram usage:        1 bytes
 Hardware stack levels used:    1
 Hardware stack levels required when called:    7
 This function calls:
		_EUSART_Write
 This function is called by:
		_printf
 This function uses a non-reentrant model


 *************** function _EUSART_Write *****************
 Defined at:
		line 128 in file "mcc_generated_files/eusart.c"
 Parameters:    Size  Location     Type
  txData          1    wreg     unsigned char 
 Auto vars:     Size  Location     Type
  txData          1   18[BANK0 ] unsigned char 
 Return value:  Size  Location     Type
                  1    wreg      void 
 Registers used:
		wreg, fsr1l, fsr1h, status,2, status,0
 Tracked objects:
		On entry : 
		On exit  : 
		Unchanged: 
 Data sizes:     COMMON   BANK0   BANK1   BANK2   BANK3   BANK4   BANK5   BANK6   BANK7   BANK8   BANK9  BANK10  BANK11  BANK12  BANK13  BANK14  BANK15  BANK16  BANK17  BANK18  BANK19  BANK20  BANK21  BANK22  BANK23  BANK24  BANK25
      Params:         0       0       0       0       0       0       0       0       0       0       0       0       0       0       0       0       0       0       0       0       0       0       0       0       0       0       0
      Locals:         0       1       0       0       0       0       0       0       0       0       0       0       0       0       0       0       0       0       0       0       0       0       0       0       0       0       0
      Temps:          0       1       0       0       0       0       0       0       0       0       0       0       0       0       0       0       0       0       0       0       0       0       0       0       0       0       0
      Totals:         0       2       0       0       0       0       0       0       0       0       0       0       0       0       0       0       0       0       0       0       0       0       0       0       0       0       0
Total ram usage:        2 bytes
 Hardware stack levels used:    1
 Hardware stack levels required when called:    6
 This function calls:
		Nothing
 This function is called by:
		_putch
 This function uses a non-reentrant model


 *************** function ___llmod *****************
 Defined at:
		line 6 in file "C:\Program Files (x86)\Microchip\xc8\v1.45\sources\common\llmod.c"
 Parameters:    Size  Location     Type
  divisor         4   31[BANK0 ] unsigned long 
  dividend        4   35[BANK0 ] unsigned long 
 Auto vars:     Size  Location     Type
  counter         1   40[BANK0 ] unsigned char 
 Return value:  Size  Location     Type
                  4   31[BANK0 ] unsigned long 
 Registers used:
		wreg, status,2, status,0
 Tracked objects:
		On entry : 
		On exit  : 
		Unchanged: 
 Data sizes:     COMMON   BANK0   BANK1   BANK2   BANK3   BANK4   BANK5   BANK6   BANK7   BANK8   BANK9  BANK10  BANK11  BANK12  BANK13  BANK14  BANK15  BANK16  BANK17  BANK18  BANK19  BANK20  BANK21  BANK22  BANK23  BANK24  BANK25
      Params:         0       8       0       0       0       0       0       0       0       0       0       0       0       0       0       0       0       0       0       0       0       0       0       0       0       0       0
      Locals:         0       1       0       0       0       0       0       0       0       0       0       0       0       0       0       0       0       0       0       0       0       0       0       0       0       0       0
      Temps:          0       1       0       0       0       0       0       0       0       0       0       0       0       0       0       0       0       0       0       0       0       0       0       0       0       0       0
      Totals:         0      10       0       0       0       0       0       0       0       0       0       0       0       0       0       0       0       0       0       0       0       0       0       0       0       0       0
Total ram usage:       10 bytes
 Hardware stack levels used:    1
 Hardware stack levels required when called:    6
 This function calls:
		Nothing
 This function is called by:
		_printf
 This function uses a non-reentrant model


 *************** function ___lldiv *****************
 Defined at:
		line 6 in file "C:\Program Files (x86)\Microchip\xc8\v1.45\sources\common\lldiv.c"
 Parameters:    Size  Location     Type
  divisor         4   17[BANK0 ] unsigned long 
  dividend        4   21[BANK0 ] unsigned long 
 Auto vars:     Size  Location     Type
  quotient        4   26[BANK0 ] unsigned long 
  counter         1   30[BANK0 ] unsigned char 
 Return value:  Size  Location     Type
                  4   17[BANK0 ] unsigned long 
 Registers used:
		wreg, status,2, status,0
 Tracked objects:
		On entry : 
		On exit  : 
		Unchanged: 
 Data sizes:     COMMON   BANK0   BANK1   BANK2   BANK3   BANK4   BANK5   BANK6   BANK7   BANK8   BANK9  BANK10  BANK11  BANK12  BANK13  BANK14  BANK15  BANK16  BANK17  BANK18  BANK19  BANK20  BANK21  BANK22  BANK23  BANK24  BANK25
      Params:         0       8       0       0       0       0       0       0       0       0       0       0       0       0       0       0       0       0       0       0       0       0       0       0       0       0       0
      Locals:         0       5       0       0       0       0       0       0       0       0       0       0       0       0       0       0       0       0       0       0       0       0       0       0       0       0       0
      Temps:          0       1       0       0       0       0       0       0       0       0       0       0       0       0       0       0       0       0       0       0       0       0       0       0       0       0       0
      Totals:         0      14       0       0       0       0       0       0       0       0       0       0       0       0       0       0       0       0       0       0       0       0       0       0       0       0       0
Total ram usage:       14 bytes
 Hardware stack levels used:    1
 Hardware stack levels required when called:    6
 This function calls:
		Nothing
 This function is called by:
		_printf
 This function uses a non-reentrant model


 *************** function _i2c_setBuffer *****************
 Defined at:
		line 184 in file "mcc_generated_files/drivers/i2c_master.c"
 Parameters:    Size  Location     Type
  buffer          2   17[BANK0 ] PTR void 
		 -> drv_read@reg(1), drv_read@buff(1), drv2665@drv_fifo_sine(244), drv_write@buff(2), 
  bufferSize      2   19[BANK0 ] unsigned int 
 Auto vars:     Size  Location     Type
		None
 Return value:  Size  Location     Type
                  1    wreg      void 
 Registers used:
		wreg
 Tracked objects:
		On entry : 
		On exit  : 
		Unchanged: 
 Data sizes:     COMMON   BANK0   BANK1   BANK2   BANK3   BANK4   BANK5   BANK6   BANK7   BANK8   BANK9  BANK10  BANK11  BANK12  BANK13  BANK14  BANK15  BANK16  BANK17  BANK18  BANK19  BANK20  BANK21  BANK22  BANK23  BANK24  BANK25
      Params:         0       4       0       0       0       0       0       0       0       0       0       0       0       0       0       0       0       0       0       0       0       0       0       0       0       0       0
      Locals:         0       0       0       0       0       0       0       0       0       0       0       0       0       0       0       0       0       0       0       0       0       0       0       0       0       0       0
      Temps:          0       0       0       0       0       0       0       0       0       0       0       0       0       0       0       0       0       0       0       0       0       0       0       0       0       0       0
      Totals:         0       4       0       0       0       0       0       0       0       0       0       0       0       0       0       0       0       0       0       0       0       0       0       0       0       0       0
Total ram usage:        4 bytes
 Hardware stack levels used:    1
 Hardware stack levels required when called:    6
 This function calls:
		Nothing
 This function is called by:
		_drv_write
		_drv_read
		_drv_write_wvfrm
 This function uses a non-reentrant model


 *************** function _i2c_masterOperation *****************
 Defined at:
		line 193 in file "mcc_generated_files/drivers/i2c_master.c"
 Parameters:    Size  Location     Type
  read            1    wreg     unsigned char 
 Auto vars:     Size  Location     Type
  read            1   24[BANK0 ] unsigned char 
  ret             1   25[BANK0 ] enum E8193
 Return value:  Size  Location     Type
                  1    wreg      enum E8193
 Registers used:
		wreg, fsr0l, fsr0h, fsr1l, fsr1h, status,2, status,0, pclath, cstack
 Tracked objects:
		On entry : 
		On exit  : 
		Unchanged: 
 Data sizes:     COMMON   BANK0   BANK1   BANK2   BANK3   BANK4   BANK5   BANK6   BANK7   BANK8   BANK9  BANK10  BANK11  BANK12  BANK13  BANK14  BANK15  BANK16  BANK17  BANK18  BANK19  BANK20  BANK21  BANK22  BANK23  BANK24  BANK25
      Params:         0       0       0       0       0       0       0       0       0       0       0       0       0       0       0       0       0       0       0       0       0       0       0       0       0       0       0
      Locals:         0       2       0       0       0       0       0       0       0       0       0       0       0       0       0       0       0       0       0       0       0       0       0       0       0       0       0
      Temps:          0       1       0       0       0       0       0       0       0       0       0       0       0       0       0       0       0       0       0       0       0       0       0       0       0       0       0
      Totals:         0       3       0       0       0       0       0       0       0       0       0       0       0       0       0       0       0       0       0       0       0       0       0       0       0       0       0
Total ram usage:        3 bytes
 Hardware stack levels used:    1
 Hardware stack levels required when called:   11
 This function calls:
		_i2c1_driver_start
		_i2c_poller
		_mssp1_IRQisEnabled
 This function is called by:
		_drv_write
		_drv_read
		_i2c_masterRead
		_i2c_masterWrite
		_drv_write_wvfrm
 This function uses a non-reentrant model


 *************** function _mssp1_IRQisEnabled *****************
 Defined at:
		line 43 in file "mcc_generated_files/i2c1_driver.c"
 Parameters:    Size  Location     Type
		None
 Auto vars:     Size  Location     Type
		None
 Return value:  Size  Location     Type
		None               void
 Registers used:
		wreg, status,2, status,0
 Tracked objects:
		On entry : 
		On exit  : 
		Unchanged: 
 Data sizes:     COMMON   BANK0   BANK1   BANK2   BANK3   BANK4   BANK5   BANK6   BANK7   BANK8   BANK9  BANK10  BANK11  BANK12  BANK13  BANK14  BANK15  BANK16  BANK17  BANK18  BANK19  BANK20  BANK21  BANK22  BANK23  BANK24  BANK25
      Params:         0       0       0       0       0       0       0       0       0       0       0       0       0       0       0       0       0       0       0       0       0       0       0       0       0       0       0
      Locals:         0       0       0       0       0       0       0       0       0       0       0       0       0       0       0       0       0       0       0       0       0       0       0       0       0       0       0
      Temps:          0       2       0       0       0       0       0       0       0       0       0       0       0       0       0       0       0       0       0       0       0       0       0       0       0       0       0
      Totals:         0       2       0       0       0       0       0       0       0       0       0       0       0       0       0       0       0       0       0       0       0       0       0       0       0       0       0
Total ram usage:        2 bytes
 Hardware stack levels used:    1
 Hardware stack levels required when called:    6
 This function calls:
		Nothing
 This function is called by:
		_i2c_masterOperation
 This function uses a non-reentrant model


 *************** function _i2c_poller *****************
 Defined at:
		line 230 in file "mcc_generated_files/drivers/i2c_master.c"
 Parameters:    Size  Location     Type
		None
 Auto vars:     Size  Location     Type
		None
 Return value:  Size  Location     Type
                  1    wreg      void 
 Registers used:
		wreg, fsr0l, fsr0h, fsr1l, fsr1h, status,2, status,0, pclath, cstack
 Tracked objects:
		On entry : 
		On exit  : 
		Unchanged: 
 Data sizes:     COMMON   BANK0   BANK1   BANK2   BANK3   BANK4   BANK5   BANK6   BANK7   BANK8   BANK9  BANK10  BANK11  BANK12  BANK13  BANK14  BANK15  BANK16  BANK17  BANK18  BANK19  BANK20  BANK21  BANK22  BANK23  BANK24  BANK25
      Params:         0       0       0       0       0       0       0       0       0       0       0       0       0       0       0       0       0       0       0       0       0       0       0       0       0       0       0
      Locals:         0       0       0       0       0       0       0       0       0       0       0       0       0       0       0       0       0       0       0       0       0       0       0       0       0       0       0
      Temps:          0       0       0       0       0       0       0       0       0       0       0       0       0       0       0       0       0       0       0       0       0       0       0       0       0       0       0
      Totals:         0       0       0       0       0       0       0       0       0       0       0       0       0       0       0       0       0       0       0       0       0       0       0       0       0       0       0
Total ram usage:        0 bytes
 Hardware stack levels used:    1
 Hardware stack levels required when called:   10
 This function calls:
		_i2c_ISR
		_mssp1_waitForEvent
 This function is called by:
		_i2c_masterOperation
 This function uses a non-reentrant model


 *************** function _mssp1_waitForEvent *****************
 Defined at:
		line 68 in file "mcc_generated_files/i2c1_driver.c"
 Parameters:    Size  Location     Type
  timeout         1    wreg     PTR unsigned int 
		 -> NULL(0), 
 Auto vars:     Size  Location     Type
  timeout         1   17[BANK0 ] PTR unsigned int 
		 -> NULL(0), 
 Return value:  Size  Location     Type
                  1    wreg      void 
 Registers used:
		wreg
 Tracked objects:
		On entry : 
		On exit  : 
		Unchanged: 
 Data sizes:     COMMON   BANK0   BANK1   BANK2   BANK3   BANK4   BANK5   BANK6   BANK7   BANK8   BANK9  BANK10  BANK11  BANK12  BANK13  BANK14  BANK15  BANK16  BANK17  BANK18  BANK19  BANK20  BANK21  BANK22  BANK23  BANK24  BANK25
      Params:         0       0       0       0       0       0       0       0       0       0       0       0       0       0       0       0       0       0       0       0       0       0       0       0       0       0       0
      Locals:         0       1       0       0       0       0       0       0       0       0       0       0       0       0       0       0       0       0       0       0       0       0       0       0       0       0       0
      Temps:          0       0       0       0       0       0       0       0       0       0       0       0       0       0       0       0       0       0       0       0       0       0       0       0       0       0       0
      Totals:         0       1       0       0       0       0       0       0       0       0       0       0       0       0       0       0       0       0       0       0       0       0       0       0       0       0       0
Total ram usage:        1 bytes
 Hardware stack levels used:    1
 Hardware stack levels required when called:    6
 This function calls:
		Nothing
 This function is called by:
		_i2c_poller
 This function uses a non-reentrant model


 *************** function _i2c_ISR *****************
 Defined at:
		line 419 in file "mcc_generated_files/drivers/i2c_master.c"
 Parameters:    Size  Location     Type
		None
 Auto vars:     Size  Location     Type
		None
 Return value:  Size  Location     Type
                  1    wreg      void 
 Registers used:
		wreg, fsr0l, fsr0h, fsr1l, fsr1h, status,2, status,0, pclath, cstack
 Tracked objects:
		On entry : 
		On exit  : 
		Unchanged: 
 Data sizes:     COMMON   BANK0   BANK1   BANK2   BANK3   BANK4   BANK5   BANK6   BANK7   BANK8   BANK9  BANK10  BANK11  BANK12  BANK13  BANK14  BANK15  BANK16  BANK17  BANK18  BANK19  BANK20  BANK21  BANK22  BANK23  BANK24  BANK25
      Params:         0       0       0       0       0       0       0       0       0       0       0       0       0       0       0       0       0       0       0       0       0       0       0       0       0       0       0
      Locals:         0       0       0       0       0       0       0       0       0       0       0       0       0       0       0       0       0       0       0       0       0       0       0       0       0       0       0
      Temps:          0       1       0       0       0       0       0       0       0       0       0       0       0       0       0       0       0       0       0       0       0       0       0       0       0       0       0
      Totals:         0       1       0       0       0       0       0       0       0       0       0       0       0       0       0       0       0       0       0       0       0       0       0       0       0       0       0
Total ram usage:        1 bytes
 Hardware stack levels used:    1
 Hardware stack levels required when called:    9
 This function calls:
		_do_I2C_DO_ACK
		_do_I2C_DO_ADDRESS_NACK
		_do_I2C_DO_NACK_RESTART
		_do_I2C_DO_NACK_STOP
		_do_I2C_IDLE
		_do_I2C_RCEN
		_do_I2C_RESET
		_do_I2C_RX
		_do_I2C_SEND_ADR_READ
		_do_I2C_SEND_ADR_WRITE
		_do_I2C_SEND_RESTART
		_do_I2C_SEND_RESTART_READ
		_do_I2C_SEND_RESTART_WRITE
		_do_I2C_SEND_STOP
		_do_I2C_TX
		_do_I2C_TX_EMPTY
		_i2c1_driver_isNACK
		_mssp1_clearIRQ
 This function is called by:
		_i2c_open
		_i2c_poller
		_INTERRUPT_InterruptManager
 This function uses a non-reentrant model


 *************** function _mssp1_clearIRQ *****************
 Defined at:
		line 53 in file "mcc_generated_files/i2c1_driver.c"
 Parameters:    Size  Location     Type
		None
 Auto vars:     Size  Location     Type
		None
 Return value:  Size  Location     Type
                  1    wreg      void 
 Registers used:
		None
 Tracked objects:
		On entry : 
		On exit  : 
		Unchanged: 
 Data sizes:     COMMON   BANK0   BANK1   BANK2   BANK3   BANK4   BANK5   BANK6   BANK7   BANK8   BANK9  BANK10  BANK11  BANK12  BANK13  BANK14  BANK15  BANK16  BANK17  BANK18  BANK19  BANK20  BANK21  BANK22  BANK23  BANK24  BANK25
      Params:         0       0       0       0       0       0       0       0       0       0       0       0       0       0       0       0       0       0       0       0       0       0       0       0       0       0       0
      Locals:         0       0       0       0       0       0       0       0       0       0       0       0       0       0       0       0       0       0       0       0       0       0       0       0       0       0       0
      Temps:          0       0       0       0       0       0       0       0       0       0       0       0       0       0       0       0       0       0       0       0       0       0       0       0       0       0       0
      Totals:         0       0       0       0       0       0       0       0       0       0       0       0       0       0       0       0       0       0       0       0       0       0       0       0       0       0       0
Total ram usage:        0 bytes
 Hardware stack levels used:    1
 Hardware stack levels required when called:    6
 This function calls:
		Nothing
 This function is called by:
		_i2c_open
		_i2c_ISR
		_i2c_close
 This function uses a non-reentrant model


 *************** function _do_I2C_RX *****************
 Defined at:
		line 357 in file "mcc_generated_files/drivers/i2c_master.c"
 Parameters:    Size  Location     Type
		None
 Auto vars:     Size  Location     Type
		None
 Return value:  Size  Location     Type
                  1    wreg      enum E8364
 Registers used:
		wreg, fsr0l, fsr0h, fsr1l, fsr1h, status,2, status,0, pclath, cstack
 Tracked objects:
		On entry : 
		On exit  : 
		Unchanged: 
 Data sizes:     COMMON   BANK0   BANK1   BANK2   BANK3   BANK4   BANK5   BANK6   BANK7   BANK8   BANK9  BANK10  BANK11  BANK12  BANK13  BANK14  BANK15  BANK16  BANK17  BANK18  BANK19  BANK20  BANK21  BANK22  BANK23  BANK24  BANK25
      Params:         0       0       0       0       0       0       0       0       0       0       0       0       0       0       0       0       0       0       0       0       0       0       0       0       0       0       0
      Locals:         0       0       0       0       0       0       0       0       0       0       0       0       0       0       0       0       0       0       0       0       0       0       0       0       0       0       0
      Temps:          0       1       0       0       0       0       0       0       0       0       0       0       0       0       0       0       0       0       0       0       0       0       0       0       0       0       0
      Totals:         0       1       0       0       0       0       0       0       0       0       0       0       0       0       0       0       0       0       0       0       0       0       0       0       0       0       0
Total ram usage:        1 bytes
 Hardware stack levels used:    1
 Hardware stack levels required when called:    8
 This function calls:
		_do_I2C_DO_NACK_RESTART
		_do_I2C_DO_NACK_STOP
		_i2c1_driver_getRXData
		_i2c1_driver_sendACK
		_returnReset
		_returnStop
 This function is called by:
		_i2c_ISR
		i1_i2c_ISR
 This function uses a non-reentrant model


 *************** function _do_I2C_TX *****************
 Defined at:
		line 333 in file "mcc_generated_files/drivers/i2c_master.c"
 Parameters:    Size  Location     Type
		None
 Auto vars:     Size  Location     Type
		None
 Return value:  Size  Location     Type
                  1    wreg      enum E8364
 Registers used:
		wreg, fsr0l, fsr0h, fsr1l, fsr1h, status,2, status,0, pclath, cstack
 Tracked objects:
		On entry : 
		On exit  : 
		Unchanged: 
 Data sizes:     COMMON   BANK0   BANK1   BANK2   BANK3   BANK4   BANK5   BANK6   BANK7   BANK8   BANK9  BANK10  BANK11  BANK12  BANK13  BANK14  BANK15  BANK16  BANK17  BANK18  BANK19  BANK20  BANK21  BANK22  BANK23  BANK24  BANK25
      Params:         0       0       0       0       0       0       0       0       0       0       0       0       0       0       0       0       0       0       0       0       0       0       0       0       0       0       0
      Locals:         0       2       0       0       0       0       0       0       0       0       0       0       0       0       0       0       0       0       0       0       0       0       0       0       0       0       0
      Temps:          0       2       0       0       0       0       0       0       0       0       0       0       0       0       0       0       0       0       0       0       0       0       0       0       0       0       0
      Totals:         0       4       0       0       0       0       0       0       0       0       0       0       0       0       0       0       0       0       0       0       0       0       0       0       0       0       0
Total ram usage:        4 bytes
 Hardware stack levels used:    1
 Hardware stack levels required when called:    8
 This function calls:
		_do_I2C_SEND_RESTART_READ
		_do_I2C_SEND_RESTART_WRITE
		_do_I2C_SEND_STOP
		_i2c1_driver_TXData
		_i2c1_driver_isNACK
		_returnReset
		_returnStop
 This function is called by:
		_i2c_ISR
		i1_i2c_ISR
 This function uses a non-reentrant model


 *************** function _do_I2C_DO_ADDRESS_NACK *****************
 Defined at:
		line 319 in file "mcc_generated_files/drivers/i2c_master.c"
 Parameters:    Size  Location     Type
		None
 Auto vars:     Size  Location     Type
		None
 Return value:  Size  Location     Type
                  1    wreg      enum E8364
 Registers used:
		wreg, fsr0l, fsr0h, fsr1l, fsr1h, status,2, status,0, pclath, cstack
 Tracked objects:
		On entry : 
		On exit  : 
		Unchanged: 
 Data sizes:     COMMON   BANK0   BANK1   BANK2   BANK3   BANK4   BANK5   BANK6   BANK7   BANK8   BANK9  BANK10  BANK11  BANK12  BANK13  BANK14  BANK15  BANK16  BANK17  BANK18  BANK19  BANK20  BANK21  BANK22  BANK23  BANK24  BANK25
      Params:         0       0       0       0       0       0       0       0       0       0       0       0       0       0       0       0       0       0       0       0       0       0       0       0       0       0       0
      Locals:         0       0       0       0       0       0       0       0       0       0       0       0       0       0       0       0       0       0       0       0       0       0       0       0       0       0       0
      Temps:          0       1       0       0       0       0       0       0       0       0       0       0       0       0       0       0       0       0       0       0       0       0       0       0       0       0       0
      Totals:         0       1       0       0       0       0       0       0       0       0       0       0       0       0       0       0       0       0       0       0       0       0       0       0       0       0       0
Total ram usage:        1 bytes
 Hardware stack levels used:    1
 Hardware stack levels required when called:    8
 This function calls:
		_do_I2C_SEND_RESTART
		_do_I2C_SEND_STOP
		_returnReset
		_returnStop
 This function is called by:
		_i2c_ISR
		i1_i2c_ISR
 This function uses a non-reentrant model


 *************** function _do_I2C_DO_NACK_RESTART *****************
 Defined at:
		line 311 in file "mcc_generated_files/drivers/i2c_master.c"
 Parameters:    Size  Location     Type
		None
 Auto vars:     Size  Location     Type
		None
 Return value:  Size  Location     Type
                  1    wreg      enum E8364
 Registers used:
		wreg, status,2, status,0, pclath, cstack
 Tracked objects:
		On entry : 
		On exit  : 
		Unchanged: 
 Data sizes:     COMMON   BANK0   BANK1   BANK2   BANK3   BANK4   BANK5   BANK6   BANK7   BANK8   BANK9  BANK10  BANK11  BANK12  BANK13  BANK14  BANK15  BANK16  BANK17  BANK18  BANK19  BANK20  BANK21  BANK22  BANK23  BANK24  BANK25
      Params:         0       0       0       0       0       0       0       0       0       0       0       0       0       0       0       0       0       0       0       0       0       0       0       0       0       0       0
      Locals:         0       0       0       0       0       0       0       0       0       0       0       0       0       0       0       0       0       0       0       0       0       0       0       0       0       0       0
      Temps:          0       0       0       0       0       0       0       0       0       0       0       0       0       0       0       0       0       0       0       0       0       0       0       0       0       0       0
      Totals:         0       0       0       0       0       0       0       0       0       0       0       0       0       0       0       0       0       0       0       0       0       0       0       0       0       0       0
Total ram usage:        0 bytes
 Hardware stack levels used:    1
 Hardware stack levels required when called:    7
 This function calls:
		_i2c1_driver_sendNACK
 This function is called by:
		_do_I2C_RX
		_i2c_ISR
		i1_i2c_ISR
 This function uses a non-reentrant model


 *************** function _do_I2C_DO_NACK_STOP *****************
 Defined at:
		line 305 in file "mcc_generated_files/drivers/i2c_master.c"
 Parameters:    Size  Location     Type
		None
 Auto vars:     Size  Location     Type
		None
 Return value:  Size  Location     Type
                  1    wreg      enum E8364
 Registers used:
		wreg, status,2, status,0, pclath, cstack
 Tracked objects:
		On entry : 
		On exit  : 
		Unchanged: 
 Data sizes:     COMMON   BANK0   BANK1   BANK2   BANK3   BANK4   BANK5   BANK6   BANK7   BANK8   BANK9  BANK10  BANK11  BANK12  BANK13  BANK14  BANK15  BANK16  BANK17  BANK18  BANK19  BANK20  BANK21  BANK22  BANK23  BANK24  BANK25
      Params:         0       0       0       0       0       0       0       0       0       0       0       0       0       0       0       0       0       0       0       0       0       0       0       0       0       0       0
      Locals:         0       0       0       0       0       0       0       0       0       0       0       0       0       0       0       0       0       0       0       0       0       0       0       0       0       0       0
      Temps:          0       0       0       0       0       0       0       0       0       0       0       0       0       0       0       0       0       0       0       0       0       0       0       0       0       0       0
      Totals:         0       0       0       0       0       0       0       0       0       0       0       0       0       0       0       0       0       0       0       0       0       0       0       0       0       0       0
Total ram usage:        0 bytes
 Hardware stack levels used:    1
 Hardware stack levels required when called:    7
 This function calls:
		_i2c1_driver_sendNACK
 This function is called by:
		_do_I2C_RX
		_i2c_ISR
		i1_i2c_ISR
 This function uses a non-reentrant model


 *************** function _do_I2C_DO_ACK *****************
 Defined at:
		line 299 in file "mcc_generated_files/drivers/i2c_master.c"
 Parameters:    Size  Location     Type
		None
 Auto vars:     Size  Location     Type
		None
 Return value:  Size  Location     Type
                  1    wreg      enum E8364
 Registers used:
		wreg, status,2, status,0, pclath, cstack
 Tracked objects:
		On entry : 
		On exit  : 
		Unchanged: 
 Data sizes:     COMMON   BANK0   BANK1   BANK2   BANK3   BANK4   BANK5   BANK6   BANK7   BANK8   BANK9  BANK10  BANK11  BANK12  BANK13  BANK14  BANK15  BANK16  BANK17  BANK18  BANK19  BANK20  BANK21  BANK22  BANK23  BANK24  BANK25
      Params:         0       0       0       0       0       0       0       0       0       0       0       0       0       0       0       0       0       0       0       0       0       0       0       0       0       0       0
      Locals:         0       0       0       0       0       0       0       0       0       0       0       0       0       0       0       0       0       0       0       0       0       0       0       0       0       0       0
      Temps:          0       0       0       0       0       0       0       0       0       0       0       0       0       0       0       0       0       0       0       0       0       0       0       0       0       0       0
      Totals:         0       0       0       0       0       0       0       0       0       0       0       0       0       0       0       0       0       0       0       0       0       0       0       0       0       0       0
Total ram usage:        0 bytes
 Hardware stack levels used:    1
 Hardware stack levels required when called:    7
 This function calls:
		_i2c1_driver_sendACK
 This function is called by:
		_i2c_ISR
		i1_i2c_ISR
 This function uses a non-reentrant model


 *************** function _do_I2C_RCEN *****************
 Defined at:
		line 292 in file "mcc_generated_files/drivers/i2c_master.c"
 Parameters:    Size  Location     Type
		None
 Auto vars:     Size  Location     Type
		None
 Return value:  Size  Location     Type
                  1    wreg      enum E8364
 Registers used:
		wreg, status,2, status,0, pclath, cstack
 Tracked objects:
		On entry : 
		On exit  : 
		Unchanged: 
 Data sizes:     COMMON   BANK0   BANK1   BANK2   BANK3   BANK4   BANK5   BANK6   BANK7   BANK8   BANK9  BANK10  BANK11  BANK12  BANK13  BANK14  BANK15  BANK16  BANK17  BANK18  BANK19  BANK20  BANK21  BANK22  BANK23  BANK24  BANK25
      Params:         0       0       0       0       0       0       0       0       0       0       0       0       0       0       0       0       0       0       0       0       0       0       0       0       0       0       0
      Locals:         0       0       0       0       0       0       0       0       0       0       0       0       0       0       0       0       0       0       0       0       0       0       0       0       0       0       0
      Temps:          0       0       0       0       0       0       0       0       0       0       0       0       0       0       0       0       0       0       0       0       0       0       0       0       0       0       0
      Totals:         0       0       0       0       0       0       0       0       0       0       0       0       0       0       0       0       0       0       0       0       0       0       0       0       0       0       0
Total ram usage:        0 bytes
 Hardware stack levels used:    1
 Hardware stack levels required when called:    7
 This function calls:
		_i2c1_driver_startRX
 This function is called by:
		_i2c_ISR
		i1_i2c_ISR
 This function uses a non-reentrant model


 *************** function _do_I2C_SEND_ADR_WRITE *****************
 Defined at:
		line 285 in file "mcc_generated_files/drivers/i2c_master.c"
 Parameters:    Size  Location     Type
		None
 Auto vars:     Size  Location     Type
		None
 Return value:  Size  Location     Type
                  1    wreg      enum E8364
 Registers used:
		wreg, status,2, status,0, pclath, cstack
 Tracked objects:
		On entry : 
		On exit  : 
		Unchanged: 
 Data sizes:     COMMON   BANK0   BANK1   BANK2   BANK3   BANK4   BANK5   BANK6   BANK7   BANK8   BANK9  BANK10  BANK11  BANK12  BANK13  BANK14  BANK15  BANK16  BANK17  BANK18  BANK19  BANK20  BANK21  BANK22  BANK23  BANK24  BANK25
      Params:         0       0       0       0       0       0       0       0       0       0       0       0       0       0       0       0       0       0       0       0       0       0       0       0       0       0       0
      Locals:         0       0       0       0       0       0       0       0       0       0       0       0       0       0       0       0       0       0       0       0       0       0       0       0       0       0       0
      Temps:          0       0       0       0       0       0       0       0       0       0       0       0       0       0       0       0       0       0       0       0       0       0       0       0       0       0       0
      Totals:         0       0       0       0       0       0       0       0       0       0       0       0       0       0       0       0       0       0       0       0       0       0       0       0       0       0       0
Total ram usage:        0 bytes
 Hardware stack levels used:    1
 Hardware stack levels required when called:    7
 This function calls:
		_i2c1_driver_TXData
 This function is called by:
		_i2c_ISR
		i1_i2c_ISR
 This function uses a non-reentrant model


 *************** function _do_I2C_SEND_ADR_READ *****************
 Defined at:
		line 278 in file "mcc_generated_files/drivers/i2c_master.c"
 Parameters:    Size  Location     Type
		None
 Auto vars:     Size  Location     Type
		None
 Return value:  Size  Location     Type
                  1    wreg      enum E8364
 Registers used:
		wreg, status,2, status,0, pclath, cstack
 Tracked objects:
		On entry : 
		On exit  : 
		Unchanged: 
 Data sizes:     COMMON   BANK0   BANK1   BANK2   BANK3   BANK4   BANK5   BANK6   BANK7   BANK8   BANK9  BANK10  BANK11  BANK12  BANK13  BANK14  BANK15  BANK16  BANK17  BANK18  BANK19  BANK20  BANK21  BANK22  BANK23  BANK24  BANK25
      Params:         0       0       0       0       0       0       0       0       0       0       0       0       0       0       0       0       0       0       0       0       0       0       0       0       0       0       0
      Locals:         0       0       0       0       0       0       0       0       0       0       0       0       0       0       0       0       0       0       0       0       0       0       0       0       0       0       0
      Temps:          0       0       0       0       0       0       0       0       0       0       0       0       0       0       0       0       0       0       0       0       0       0       0       0       0       0       0
      Totals:         0       0       0       0       0       0       0       0       0       0       0       0       0       0       0       0       0       0       0       0       0       0       0       0       0       0       0
Total ram usage:        0 bytes
 Hardware stack levels used:    1
 Hardware stack levels required when called:    7
 This function calls:
		_i2c1_driver_TXData
 This function is called by:
		_i2c_ISR
		i1_i2c_ISR
 This function uses a non-reentrant model


 *************** function _do_I2C_SEND_STOP *****************
 Defined at:
		line 272 in file "mcc_generated_files/drivers/i2c_master.c"
 Parameters:    Size  Location     Type
		None
 Auto vars:     Size  Location     Type
		None
 Return value:  Size  Location     Type
                  1    wreg      enum E8364
 Registers used:
		wreg, status,2, status,0, pclath, cstack
 Tracked objects:
		On entry : 
		On exit  : 
		Unchanged: 
 Data sizes:     COMMON   BANK0   BANK1   BANK2   BANK3   BANK4   BANK5   BANK6   BANK7   BANK8   BANK9  BANK10  BANK11  BANK12  BANK13  BANK14  BANK15  BANK16  BANK17  BANK18  BANK19  BANK20  BANK21  BANK22  BANK23  BANK24  BANK25
      Params:         0       0       0       0       0       0       0       0       0       0       0       0       0       0       0       0       0       0       0       0       0       0       0       0       0       0       0
      Locals:         0       0       0       0       0       0       0       0       0       0       0       0       0       0       0       0       0       0       0       0       0       0       0       0       0       0       0
      Temps:          0       0       0       0       0       0       0       0       0       0       0       0       0       0       0       0       0       0       0       0       0       0       0       0       0       0       0
      Totals:         0       0       0       0       0       0       0       0       0       0       0       0       0       0       0       0       0       0       0       0       0       0       0       0       0       0       0
Total ram usage:        0 bytes
 Hardware stack levels used:    1
 Hardware stack levels required when called:    7
 This function calls:
		_i2c1_driver_stop
 This function is called by:
		_do_I2C_DO_ADDRESS_NACK
		_do_I2C_TX
		_do_I2C_TX_EMPTY
		_i2c_ISR
		i1_i2c_ISR
 This function uses a non-reentrant model


 *************** function _do_I2C_SEND_RESTART *****************
 Defined at:
		line 266 in file "mcc_generated_files/drivers/i2c_master.c"
 Parameters:    Size  Location     Type
		None
 Auto vars:     Size  Location     Type
		None
 Return value:  Size  Location     Type
                  1    wreg      enum E8364
 Registers used:
		wreg, status,2, status,0, pclath, cstack
 Tracked objects:
		On entry : 
		On exit  : 
		Unchanged: 
 Data sizes:     COMMON   BANK0   BANK1   BANK2   BANK3   BANK4   BANK5   BANK6   BANK7   BANK8   BANK9  BANK10  BANK11  BANK12  BANK13  BANK14  BANK15  BANK16  BANK17  BANK18  BANK19  BANK20  BANK21  BANK22  BANK23  BANK24  BANK25
      Params:         0       0       0       0       0       0       0       0       0       0       0       0       0       0       0       0       0       0       0       0       0       0       0       0       0       0       0
      Locals:         0       0       0       0       0       0       0       0       0       0       0       0       0       0       0       0       0       0       0       0       0       0       0       0       0       0       0
      Temps:          0       0       0       0       0       0       0       0       0       0       0       0       0       0       0       0       0       0       0       0       0       0       0       0       0       0       0
      Totals:         0       0       0       0       0       0       0       0       0       0       0       0       0       0       0       0       0       0       0       0       0       0       0       0       0       0       0
Total ram usage:        0 bytes
 Hardware stack levels used:    1
 Hardware stack levels required when called:    7
 This function calls:
		_i2c1_driver_restart
 This function is called by:
		_do_I2C_DO_ADDRESS_NACK
		_do_I2C_TX_EMPTY
		_i2c_ISR
		i1_i2c_ISR
 This function uses a non-reentrant model


 *************** function _do_I2C_SEND_RESTART_WRITE *****************
 Defined at:
		line 260 in file "mcc_generated_files/drivers/i2c_master.c"
 Parameters:    Size  Location     Type
		None
 Auto vars:     Size  Location     Type
		None
 Return value:  Size  Location     Type
                  1    wreg      enum E8364
 Registers used:
		wreg, status,2, status,0, pclath, cstack
 Tracked objects:
		On entry : 
		On exit  : 
		Unchanged: 
 Data sizes:     COMMON   BANK0   BANK1   BANK2   BANK3   BANK4   BANK5   BANK6   BANK7   BANK8   BANK9  BANK10  BANK11  BANK12  BANK13  BANK14  BANK15  BANK16  BANK17  BANK18  BANK19  BANK20  BANK21  BANK22  BANK23  BANK24  BANK25
      Params:         0       0       0       0       0       0       0       0       0       0       0       0       0       0       0       0       0       0       0       0       0       0       0       0       0       0       0
      Locals:         0       0       0       0       0       0       0       0       0       0       0       0       0       0       0       0       0       0       0       0       0       0       0       0       0       0       0
      Temps:          0       0       0       0       0       0       0       0       0       0       0       0       0       0       0       0       0       0       0       0       0       0       0       0       0       0       0
      Totals:         0       0       0       0       0       0       0       0       0       0       0       0       0       0       0       0       0       0       0       0       0       0       0       0       0       0       0
Total ram usage:        0 bytes
 Hardware stack levels used:    1
 Hardware stack levels required when called:    7
 This function calls:
		_i2c1_driver_restart
 This function is called by:
		_do_I2C_TX
		_i2c_ISR
		i1_i2c_ISR
 This function uses a non-reentrant model


 *************** function _do_I2C_SEND_RESTART_READ *****************
 Defined at:
		line 254 in file "mcc_generated_files/drivers/i2c_master.c"
 Parameters:    Size  Location     Type
		None
 Auto vars:     Size  Location     Type
		None
 Return value:  Size  Location     Type
                  1    wreg      enum E8364
 Registers used:
		wreg, status,2, status,0, pclath, cstack
 Tracked objects:
		On entry : 
		On exit  : 
		Unchanged: 
 Data sizes:     COMMON   BANK0   BANK1   BANK2   BANK3   BANK4   BANK5   BANK6   BANK7   BANK8   BANK9  BANK10  BANK11  BANK12  BANK13  BANK14  BANK15  BANK16  BANK17  BANK18  BANK19  BANK20  BANK21  BANK22  BANK23  BANK24  BANK25
      Params:         0       0       0       0       0       0       0       0       0       0       0       0       0       0       0       0       0       0       0       0       0       0       0       0       0       0       0
      Locals:         0       0       0       0       0       0       0       0       0       0       0       0       0       0       0       0       0       0       0       0       0       0       0       0       0       0       0
      Temps:          0       0       0       0       0       0       0       0       0       0       0       0       0       0       0       0       0       0       0       0       0       0       0       0       0       0       0
      Totals:         0       0       0       0       0       0       0       0       0       0       0       0       0       0       0       0       0       0       0       0       0       0       0       0       0       0       0
Total ram usage:        0 bytes
 Hardware stack levels used:    1
 Hardware stack levels required when called:    7
 This function calls:
		_i2c1_driver_restart
 This function is called by:
		_do_I2C_TX
		_i2c_ISR
		i1_i2c_ISR
 This function uses a non-reentrant model


 *************** function _do_I2C_IDLE *****************
 Defined at:
		line 247 in file "mcc_generated_files/drivers/i2c_master.c"
 Parameters:    Size  Location     Type
		None
 Auto vars:     Size  Location     Type
		None
 Return value:  Size  Location     Type
                  1    wreg      enum E8364
 Registers used:
		wreg, status,2
 Tracked objects:
		On entry : 
		On exit  : 
		Unchanged: 
 Data sizes:     COMMON   BANK0   BANK1   BANK2   BANK3   BANK4   BANK5   BANK6   BANK7   BANK8   BANK9  BANK10  BANK11  BANK12  BANK13  BANK14  BANK15  BANK16  BANK17  BANK18  BANK19  BANK20  BANK21  BANK22  BANK23  BANK24  BANK25
      Params:         0       0       0       0       0       0       0       0       0       0       0       0       0       0       0       0       0       0       0       0       0       0       0       0       0       0       0
      Locals:         0       0       0       0       0       0       0       0       0       0       0       0       0       0       0       0       0       0       0       0       0       0       0       0       0       0       0
      Temps:          0       0       0       0       0       0       0       0       0       0       0       0       0       0       0       0       0       0       0       0       0       0       0       0       0       0       0
      Totals:         0       0       0       0       0       0       0       0       0       0       0       0       0       0       0       0       0       0       0       0       0       0       0       0       0       0       0
Total ram usage:        0 bytes
 Hardware stack levels used:    1
 Hardware stack levels required when called:    6
 This function calls:
		Nothing
 This function is called by:
		_i2c_ISR
		i1_i2c_ISR
 This function uses a non-reentrant model


 *************** function _do_I2C_RESET *****************
 Defined at:
		line 239 in file "mcc_generated_files/drivers/i2c_master.c"
 Parameters:    Size  Location     Type
		None
 Auto vars:     Size  Location     Type
		None
 Return value:  Size  Location     Type
                  1    wreg      enum E8364
 Registers used:
		wreg, status,2, status,0, pclath, cstack
 Tracked objects:
		On entry : 
		On exit  : 
		Unchanged: 
 Data sizes:     COMMON   BANK0   BANK1   BANK2   BANK3   BANK4   BANK5   BANK6   BANK7   BANK8   BANK9  BANK10  BANK11  BANK12  BANK13  BANK14  BANK15  BANK16  BANK17  BANK18  BANK19  BANK20  BANK21  BANK22  BANK23  BANK24  BANK25
      Params:         0       0       0       0       0       0       0       0       0       0       0       0       0       0       0       0       0       0       0       0       0       0       0       0       0       0       0
      Locals:         0       0       0       0       0       0       0       0       0       0       0       0       0       0       0       0       0       0       0       0       0       0       0       0       0       0       0
      Temps:          0       0       0       0       0       0       0       0       0       0       0       0       0       0       0       0       0       0       0       0       0       0       0       0       0       0       0
      Totals:         0       0       0       0       0       0       0       0       0       0       0       0       0       0       0       0       0       0       0       0       0       0       0       0       0       0       0
Total ram usage:        0 bytes
 Hardware stack levels used:    1
 Hardware stack levels required when called:    7
 This function calls:
		_i2c1_driver_resetBus
 This function is called by:
		_i2c_ISR
		i1_i2c_ISR
 This function uses a non-reentrant model


 *************** function _do_I2C_TX_EMPTY *****************
 Defined at:
		line 382 in file "mcc_generated_files/drivers/i2c_master.c"
 Parameters:    Size  Location     Type
		None
 Auto vars:     Size  Location     Type
		None
 Return value:  Size  Location     Type
                  1    wreg      enum E8364
 Registers used:
		wreg, fsr0l, fsr0h, fsr1l, fsr1h, status,2, status,0, pclath, cstack
 Tracked objects:
		On entry : 
		On exit  : 
		Unchanged: 
 Data sizes:     COMMON   BANK0   BANK1   BANK2   BANK3   BANK4   BANK5   BANK6   BANK7   BANK8   BANK9  BANK10  BANK11  BANK12  BANK13  BANK14  BANK15  BANK16  BANK17  BANK18  BANK19  BANK20  BANK21  BANK22  BANK23  BANK24  BANK25
      Params:         0       0       0       0       0       0       0       0       0       0       0       0       0       0       0       0       0       0       0       0       0       0       0       0       0       0       0
      Locals:         0       0       0       0       0       0       0       0       0       0       0       0       0       0       0       0       0       0       0       0       0       0       0       0       0       0       0
      Temps:          0       1       0       0       0       0       0       0       0       0       0       0       0       0       0       0       0       0       0       0       0       0       0       0       0       0       0
      Totals:         0       1       0       0       0       0       0       0       0       0       0       0       0       0       0       0       0       0       0       0       0       0       0       0       0       0       0
Total ram usage:        1 bytes
 Hardware stack levels used:    1
 Hardware stack levels required when called:    8
 This function calls:
		_do_I2C_SEND_RESTART
		_do_I2C_SEND_STOP
		_mssp1_setIRQ
		_returnReset
		_returnStop
 This function is called by:
		_i2c_ISR
		i1_i2c_ISR
 This function uses a non-reentrant model


 *************** function _mssp1_setIRQ *****************
 Defined at:
		line 58 in file "mcc_generated_files/i2c1_driver.c"
 Parameters:    Size  Location     Type
		None
 Auto vars:     Size  Location     Type
		None
 Return value:  Size  Location     Type
                  1    wreg      void 
 Registers used:
		None
 Tracked objects:
		On entry : 
		On exit  : 
		Unchanged: 
 Data sizes:     COMMON   BANK0   BANK1   BANK2   BANK3   BANK4   BANK5   BANK6   BANK7   BANK8   BANK9  BANK10  BANK11  BANK12  BANK13  BANK14  BANK15  BANK16  BANK17  BANK18  BANK19  BANK20  BANK21  BANK22  BANK23  BANK24  BANK25
      Params:         0       0       0       0       0       0       0       0       0       0       0       0       0       0       0       0       0       0       0       0       0       0       0       0       0       0       0
      Locals:         0       0       0       0       0       0       0       0       0       0       0       0       0       0       0       0       0       0       0       0       0       0       0       0       0       0       0
      Temps:          0       0       0       0       0       0       0       0       0       0       0       0       0       0       0       0       0       0       0       0       0       0       0       0       0       0       0
      Totals:         0       0       0       0       0       0       0       0       0       0       0       0       0       0       0       0       0       0       0       0       0       0       0       0       0       0       0
Total ram usage:        0 bytes
 Hardware stack levels used:    1
 Hardware stack levels required when called:    6
 This function calls:
		Nothing
 This function is called by:
		_do_I2C_TX_EMPTY
 This function uses a non-reentrant model


 *************** function _i2c1_driver_isNACK *****************
 Defined at:
		line 161 in file "mcc_generated_files/i2c1_driver.c"
 Parameters:    Size  Location     Type
		None
 Auto vars:     Size  Location     Type
		None
 Return value:  Size  Location     Type
		None               void
 Registers used:
		wreg, status,2, status,0
 Tracked objects:
		On entry : 
		On exit  : 
		Unchanged: 
 Data sizes:     COMMON   BANK0   BANK1   BANK2   BANK3   BANK4   BANK5   BANK6   BANK7   BANK8   BANK9  BANK10  BANK11  BANK12  BANK13  BANK14  BANK15  BANK16  BANK17  BANK18  BANK19  BANK20  BANK21  BANK22  BANK23  BANK24  BANK25
      Params:         0       0       0       0       0       0       0       0       0       0       0       0       0       0       0       0       0       0       0       0       0       0       0       0       0       0       0
      Locals:         0       0       0       0       0       0       0       0       0       0       0       0       0       0       0       0       0       0       0       0       0       0       0       0       0       0       0
      Temps:          0       1       0       0       0       0       0       0       0       0       0       0       0       0       0       0       0       0       0       0       0       0       0       0       0       0       0
      Totals:         0       1       0       0       0       0       0       0       0       0       0       0       0       0       0       0       0       0       0       0       0       0       0       0       0       0       0
Total ram usage:        1 bytes
 Hardware stack levels used:    1
 Hardware stack levels required when called:    6
 This function calls:
		Nothing
 This function is called by:
		_do_I2C_TX
		_i2c_ISR
 This function uses a non-reentrant model


 *************** function _i2c1_driver_TXData *****************
 Defined at:
		line 186 in file "mcc_generated_files/i2c1_driver.c"
 Parameters:    Size  Location     Type
  d               1    wreg     unsigned char 
 Auto vars:     Size  Location     Type
  d               1   17[BANK0 ] unsigned char 
 Return value:  Size  Location     Type
                  1    wreg      void 
 Registers used:
		wreg
 Tracked objects:
		On entry : 
		On exit  : 
		Unchanged: 
 Data sizes:     COMMON   BANK0   BANK1   BANK2   BANK3   BANK4   BANK5   BANK6   BANK7   BANK8   BANK9  BANK10  BANK11  BANK12  BANK13  BANK14  BANK15  BANK16  BANK17  BANK18  BANK19  BANK20  BANK21  BANK22  BANK23  BANK24  BANK25
      Params:         0       0       0       0       0       0       0       0       0       0       0       0       0       0       0       0       0       0       0       0       0       0       0       0       0       0       0
      Locals:         0       1       0       0       0       0       0       0       0       0       0       0       0       0       0       0       0       0       0       0       0       0       0       0       0       0       0
      Temps:          0       0       0       0       0       0       0       0       0       0       0       0       0       0       0       0       0       0       0       0       0       0       0       0       0       0       0
      Totals:         0       1       0       0       0       0       0       0       0       0       0       0       0       0       0       0       0       0       0       0       0       0       0       0       0       0       0
Total ram usage:        1 bytes
 Hardware stack levels used:    1
 Hardware stack levels required when called:    6
 This function calls:
		Nothing
 This function is called by:
		_do_I2C_SEND_ADR_READ
		_do_I2C_SEND_ADR_WRITE
		_do_I2C_TX
 This function uses a non-reentrant model


 *************** function _i2c1_driver_getRXData *****************
 Defined at:
		line 171 in file "mcc_generated_files/i2c1_driver.c"
 Parameters:    Size  Location     Type
		None
 Auto vars:     Size  Location     Type
		None
 Return value:  Size  Location     Type
                  1    wreg      unsigned char 
 Registers used:
		wreg
 Tracked objects:
		On entry : 
		On exit  : 
		Unchanged: 
 Data sizes:     COMMON   BANK0   BANK1   BANK2   BANK3   BANK4   BANK5   BANK6   BANK7   BANK8   BANK9  BANK10  BANK11  BANK12  BANK13  BANK14  BANK15  BANK16  BANK17  BANK18  BANK19  BANK20  BANK21  BANK22  BANK23  BANK24  BANK25
      Params:         0       0       0       0       0       0       0       0       0       0       0       0       0       0       0       0       0       0       0       0       0       0       0       0       0       0       0
      Locals:         0       0       0       0       0       0       0       0       0       0       0       0       0       0       0       0       0       0       0       0       0       0       0       0       0       0       0
      Temps:          0       0       0       0       0       0       0       0       0       0       0       0       0       0       0       0       0       0       0       0       0       0       0       0       0       0       0
      Totals:         0       0       0       0       0       0       0       0       0       0       0       0       0       0       0       0       0       0       0       0       0       0       0       0       0       0       0
Total ram usage:        0 bytes
 Hardware stack levels used:    1
 Hardware stack levels required when called:    6
 This function calls:
		Nothing
 This function is called by:
		_do_I2C_RX
 This function uses a non-reentrant model


 *************** function _i2c1_driver_sendNACK *****************
 Defined at:
		line 202 in file "mcc_generated_files/i2c1_driver.c"
 Parameters:    Size  Location     Type
		None
 Auto vars:     Size  Location     Type
		None
 Return value:  Size  Location     Type
                  1    wreg      void 
 Registers used:
		None
 Tracked objects:
		On entry : 
		On exit  : 
		Unchanged: 
 Data sizes:     COMMON   BANK0   BANK1   BANK2   BANK3   BANK4   BANK5   BANK6   BANK7   BANK8   BANK9  BANK10  BANK11  BANK12  BANK13  BANK14  BANK15  BANK16  BANK17  BANK18  BANK19  BANK20  BANK21  BANK22  BANK23  BANK24  BANK25
      Params:         0       0       0       0       0       0       0       0       0       0       0       0       0       0       0       0       0       0       0       0       0       0       0       0       0       0       0
      Locals:         0       0       0       0       0       0       0       0       0       0       0       0       0       0       0       0       0       0       0       0       0       0       0       0       0       0       0
      Temps:          0       0       0       0       0       0       0       0       0       0       0       0       0       0       0       0       0       0       0       0       0       0       0       0       0       0       0
      Totals:         0       0       0       0       0       0       0       0       0       0       0       0       0       0       0       0       0       0       0       0       0       0       0       0       0       0       0
Total ram usage:        0 bytes
 Hardware stack levels used:    1
 Hardware stack levels required when called:    6
 This function calls:
		Nothing
 This function is called by:
		_do_I2C_DO_NACK_STOP
		_do_I2C_DO_NACK_RESTART
 This function uses a non-reentrant model


 *************** function _i2c1_driver_resetBus *****************
 Defined at:
		line 141 in file "mcc_generated_files/i2c1_driver.c"
 Parameters:    Size  Location     Type
		None
 Auto vars:     Size  Location     Type
		None
 Return value:  Size  Location     Type
                  1    wreg      void 
 Registers used:
		None
 Tracked objects:
		On entry : 
		On exit  : 
		Unchanged: 
 Data sizes:     COMMON   BANK0   BANK1   BANK2   BANK3   BANK4   BANK5   BANK6   BANK7   BANK8   BANK9  BANK10  BANK11  BANK12  BANK13  BANK14  BANK15  BANK16  BANK17  BANK18  BANK19  BANK20  BANK21  BANK22  BANK23  BANK24  BANK25
      Params:         0       0       0       0       0       0       0       0       0       0       0       0       0       0       0       0       0       0       0       0       0       0       0       0       0       0       0
      Locals:         0       0       0       0       0       0       0       0       0       0       0       0       0       0       0       0       0       0       0       0       0       0       0       0       0       0       0
      Temps:          0       0       0       0       0       0       0       0       0       0       0       0       0       0       0       0       0       0       0       0       0       0       0       0       0       0       0
      Totals:         0       0       0       0       0       0       0       0       0       0       0       0       0       0       0       0       0       0       0       0       0       0       0       0       0       0       0
Total ram usage:        0 bytes
 Hardware stack levels used:    1
 Hardware stack levels required when called:    6
 This function calls:
		Nothing
 This function is called by:
		_do_I2C_RESET
 This function uses a non-reentrant model


 *************** function _i2c1_driver_startRX *****************
 Defined at:
		line 166 in file "mcc_generated_files/i2c1_driver.c"
 Parameters:    Size  Location     Type
		None
 Auto vars:     Size  Location     Type
		None
 Return value:  Size  Location     Type
                  1    wreg      void 
 Registers used:
		None
 Tracked objects:
		On entry : 
		On exit  : 
		Unchanged: 
 Data sizes:     COMMON   BANK0   BANK1   BANK2   BANK3   BANK4   BANK5   BANK6   BANK7   BANK8   BANK9  BANK10  BANK11  BANK12  BANK13  BANK14  BANK15  BANK16  BANK17  BANK18  BANK19  BANK20  BANK21  BANK22  BANK23  BANK24  BANK25
      Params:         0       0       0       0       0       0       0       0       0       0       0       0       0       0       0       0       0       0       0       0       0       0       0       0       0       0       0
      Locals:         0       0       0       0       0       0       0       0       0       0       0       0       0       0       0       0       0       0       0       0       0       0       0       0       0       0       0
      Temps:          0       0       0       0       0       0       0       0       0       0       0       0       0       0       0       0       0       0       0       0       0       0       0       0       0       0       0
      Totals:         0       0       0       0       0       0       0       0       0       0       0       0       0       0       0       0       0       0       0       0       0       0       0       0       0       0       0
Total ram usage:        0 bytes
 Hardware stack levels used:    1
 Hardware stack levels required when called:    6
 This function calls:
		Nothing
 This function is called by:
		_do_I2C_RCEN
 This function uses a non-reentrant model


 *************** function _returnReset *****************
 Defined at:
		line 448 in file "mcc_generated_files/drivers/i2c_master.c"
 Parameters:    Size  Location     Type
  p               1   17[BANK0 ] PTR void 
		 -> NULL(0), 
 Auto vars:     Size  Location     Type
		None
 Return value:  Size  Location     Type
                  1    wreg      enum E8198
 Registers used:
		wreg
 Tracked objects:
		On entry : 
		On exit  : 
		Unchanged: 
 Data sizes:     COMMON   BANK0   BANK1   BANK2   BANK3   BANK4   BANK5   BANK6   BANK7   BANK8   BANK9  BANK10  BANK11  BANK12  BANK13  BANK14  BANK15  BANK16  BANK17  BANK18  BANK19  BANK20  BANK21  BANK22  BANK23  BANK24  BANK25
      Params:         0       1       0       0       0       0       0       0       0       0       0       0       0       0       0       0       0       0       0       0       0       0       0       0       0       0       0
      Locals:         0       0       0       0       0       0       0       0       0       0       0       0       0       0       0       0       0       0       0       0       0       0       0       0       0       0       0
      Temps:          0       0       0       0       0       0       0       0       0       0       0       0       0       0       0       0       0       0       0       0       0       0       0       0       0       0       0
      Totals:         0       1       0       0       0       0       0       0       0       0       0       0       0       0       0       0       0       0       0       0       0       0       0       0       0       0       0
Total ram usage:        1 bytes
 Hardware stack levels used:    1
 Hardware stack levels required when called:    6
 This function calls:
		Nothing
 This function is called by:
		_i2c_open
		_do_I2C_DO_ADDRESS_NACK
		_do_I2C_TX
		_do_I2C_RX
		_do_I2C_TX_EMPTY
		i1_do_I2C_DO_ADDRESS_NACK
		i1_do_I2C_TX
		i1_do_I2C_RX
		i1_do_I2C_TX_EMPTY
 This function uses a non-reentrant model


 *************** function _returnStop *****************
 Defined at:
		line 443 in file "mcc_generated_files/drivers/i2c_master.c"
 Parameters:    Size  Location     Type
  p               1   17[BANK0 ] PTR void 
		 -> NULL(0), 
 Auto vars:     Size  Location     Type
		None
 Return value:  Size  Location     Type
                  1    wreg      enum E8198
 Registers used:
		wreg
 Tracked objects:
		On entry : 
		On exit  : 
		Unchanged: 
 Data sizes:     COMMON   BANK0   BANK1   BANK2   BANK3   BANK4   BANK5   BANK6   BANK7   BANK8   BANK9  BANK10  BANK11  BANK12  BANK13  BANK14  BANK15  BANK16  BANK17  BANK18  BANK19  BANK20  BANK21  BANK22  BANK23  BANK24  BANK25
      Params:         0       1       0       0       0       0       0       0       0       0       0       0       0       0       0       0       0       0       0       0       0       0       0       0       0       0       0
      Locals:         0       0       0       0       0       0       0       0       0       0       0       0       0       0       0       0       0       0       0       0       0       0       0       0       0       0       0
      Temps:          0       0       0       0       0       0       0       0       0       0       0       0       0       0       0       0       0       0       0       0       0       0       0       0       0       0       0
      Totals:         0       1       0       0       0       0       0       0       0       0       0       0       0       0       0       0       0       0       0       0       0       0       0       0       0       0       0
Total ram usage:        1 bytes
 Hardware stack levels used:    1
 Hardware stack levels required when called:    6
 This function calls:
		Nothing
 This function is called by:
		_i2c_open
		_setCallBack
		_do_I2C_DO_ADDRESS_NACK
		_do_I2C_TX
		_do_I2C_RX
		_do_I2C_TX_EMPTY
		i1_do_I2C_DO_ADDRESS_NACK
		i1_do_I2C_TX
		i1_do_I2C_RX
		i1_do_I2C_TX_EMPTY
 This function uses a non-reentrant model


 *************** function _i2c1_driver_stop *****************
 Defined at:
		line 156 in file "mcc_generated_files/i2c1_driver.c"
 Parameters:    Size  Location     Type
		None
 Auto vars:     Size  Location     Type
		None
 Return value:  Size  Location     Type
                  1    wreg      void 
 Registers used:
		None
 Tracked objects:
		On entry : 
		On exit  : 
		Unchanged: 
 Data sizes:     COMMON   BANK0   BANK1   BANK2   BANK3   BANK4   BANK5   BANK6   BANK7   BANK8   BANK9  BANK10  BANK11  BANK12  BANK13  BANK14  BANK15  BANK16  BANK17  BANK18  BANK19  BANK20  BANK21  BANK22  BANK23  BANK24  BANK25
      Params:         0       0       0       0       0       0       0       0       0       0       0       0       0       0       0       0       0       0       0       0       0       0       0       0       0       0       0
      Locals:         0       0       0       0       0       0       0       0       0       0       0       0       0       0       0       0       0       0       0       0       0       0       0       0       0       0       0
      Temps:          0       0       0       0       0       0       0       0       0       0       0       0       0       0       0       0       0       0       0       0       0       0       0       0       0       0       0
      Totals:         0       0       0       0       0       0       0       0       0       0       0       0       0       0       0       0       0       0       0       0       0       0       0       0       0       0       0
Total ram usage:        0 bytes
 Hardware stack levels used:    1
 Hardware stack levels required when called:    6
 This function calls:
		Nothing
 This function is called by:
		_do_I2C_SEND_STOP
 This function uses a non-reentrant model


 *************** function _i2c1_driver_restart *****************
 Defined at:
		line 151 in file "mcc_generated_files/i2c1_driver.c"
 Parameters:    Size  Location     Type
		None
 Auto vars:     Size  Location     Type
		None
 Return value:  Size  Location     Type
                  1    wreg      void 
 Registers used:
		None
 Tracked objects:
		On entry : 
		On exit  : 
		Unchanged: 
 Data sizes:     COMMON   BANK0   BANK1   BANK2   BANK3   BANK4   BANK5   BANK6   BANK7   BANK8   BANK9  BANK10  BANK11  BANK12  BANK13  BANK14  BANK15  BANK16  BANK17  BANK18  BANK19  BANK20  BANK21  BANK22  BANK23  BANK24  BANK25
      Params:         0       0       0       0       0       0       0       0       0       0       0       0       0       0       0       0       0       0       0       0       0       0       0       0       0       0       0
      Locals:         0       0       0       0       0       0       0       0       0       0       0       0       0       0       0       0       0       0       0       0       0       0       0       0       0       0       0
      Temps:          0       0       0       0       0       0       0       0       0       0       0       0       0       0       0       0       0       0       0       0       0       0       0       0       0       0       0
      Totals:         0       0       0       0       0       0       0       0       0       0       0       0       0       0       0       0       0       0       0       0       0       0       0       0       0       0       0
Total ram usage:        0 bytes
 Hardware stack levels used:    1
 Hardware stack levels required when called:    6
 This function calls:
		Nothing
 This function is called by:
		_do_I2C_SEND_RESTART_READ
		_do_I2C_SEND_RESTART_WRITE
		_do_I2C_SEND_RESTART
 This function uses a non-reentrant model


 *************** function _i2c1_driver_sendACK *****************
 Defined at:
		line 196 in file "mcc_generated_files/i2c1_driver.c"
 Parameters:    Size  Location     Type
		None
 Auto vars:     Size  Location     Type
		None
 Return value:  Size  Location     Type
                  1    wreg      void 
 Registers used:
		None
 Tracked objects:
		On entry : 
		On exit  : 
		Unchanged: 
 Data sizes:     COMMON   BANK0   BANK1   BANK2   BANK3   BANK4   BANK5   BANK6   BANK7   BANK8   BANK9  BANK10  BANK11  BANK12  BANK13  BANK14  BANK15  BANK16  BANK17  BANK18  BANK19  BANK20  BANK21  BANK22  BANK23  BANK24  BANK25
      Params:         0       0       0       0       0       0       0       0       0       0       0       0       0       0       0       0       0       0       0       0       0       0       0       0       0       0       0
      Locals:         0       0       0       0       0       0       0       0       0       0       0       0       0       0       0       0       0       0       0       0       0       0       0       0       0       0       0
      Temps:          0       0       0       0       0       0       0       0       0       0       0       0       0       0       0       0       0       0       0       0       0       0       0       0       0       0       0
      Totals:         0       0       0       0       0       0       0       0       0       0       0       0       0       0       0       0       0       0       0       0       0       0       0       0       0       0       0
Total ram usage:        0 bytes
 Hardware stack levels used:    1
 Hardware stack levels required when called:    6
 This function calls:
		Nothing
 This function is called by:
		_do_I2C_DO_ACK
		_do_I2C_RX
 This function uses a non-reentrant model


 *************** function _i2c1_driver_start *****************
 Defined at:
		line 146 in file "mcc_generated_files/i2c1_driver.c"
 Parameters:    Size  Location     Type
		None
 Auto vars:     Size  Location     Type
		None
 Return value:  Size  Location     Type
                  1    wreg      void 
 Registers used:
		None
 Tracked objects:
		On entry : 
		On exit  : 
		Unchanged: 
 Data sizes:     COMMON   BANK0   BANK1   BANK2   BANK3   BANK4   BANK5   BANK6   BANK7   BANK8   BANK9  BANK10  BANK11  BANK12  BANK13  BANK14  BANK15  BANK16  BANK17  BANK18  BANK19  BANK20  BANK21  BANK22  BANK23  BANK24  BANK25
      Params:         0       0       0       0       0       0       0       0       0       0       0       0       0       0       0       0       0       0       0       0       0       0       0       0       0       0       0
      Locals:         0       0       0       0       0       0       0       0       0       0       0       0       0       0       0       0       0       0       0       0       0       0       0       0       0       0       0
      Temps:          0       0       0       0       0       0       0       0       0       0       0       0       0       0       0       0       0       0       0       0       0       0       0       0       0       0       0
      Totals:         0       0       0       0       0       0       0       0       0       0       0       0       0       0       0       0       0       0       0       0       0       0       0       0       0       0       0
Total ram usage:        0 bytes
 Hardware stack levels used:    1
 Hardware stack levels required when called:    6
 This function calls:
		Nothing
 This function is called by:
		_i2c_masterOperation
 This function uses a non-reentrant model


 *************** function ___awdiv *****************
 Defined at:
		line 6 in file "C:\Program Files (x86)\Microchip\xc8\v1.45\sources\common\awdiv.c"
 Parameters:    Size  Location     Type
  divisor         2   17[BANK0 ] int 
  dividend        2   19[BANK0 ] int 
 Auto vars:     Size  Location     Type
  quotient        2   24[BANK0 ] int 
  sign            1   23[BANK0 ] unsigned char 
  counter         1   22[BANK0 ] unsigned char 
 Return value:  Size  Location     Type
                  2   17[BANK0 ] int 
 Registers used:
		wreg, status,2, status,0
 Tracked objects:
		On entry : 
		On exit  : 
		Unchanged: 
 Data sizes:     COMMON   BANK0   BANK1   BANK2   BANK3   BANK4   BANK5   BANK6   BANK7   BANK8   BANK9  BANK10  BANK11  BANK12  BANK13  BANK14  BANK15  BANK16  BANK17  BANK18  BANK19  BANK20  BANK21  BANK22  BANK23  BANK24  BANK25
      Params:         0       4       0       0       0       0       0       0       0       0       0       0       0       0       0       0       0       0       0       0       0       0       0       0       0       0       0
      Locals:         0       4       0       0       0       0       0       0       0       0       0       0       0       0       0       0       0       0       0       0       0       0       0       0       0       0       0
      Temps:          0       1       0       0       0       0       0       0       0       0       0       0       0       0       0       0       0       0       0       0       0       0       0       0       0       0       0
      Totals:         0       9       0       0       0       0       0       0       0       0       0       0       0       0       0       0       0       0       0       0       0       0       0       0       0       0       0
Total ram usage:        9 bytes
 Hardware stack levels used:    1
 Hardware stack levels required when called:    6
 This function calls:
		Nothing
 This function is called by:
		_drv_write_DC
		_drv_outputSine
 This function uses a non-reentrant model


 *************** function _calcHeaterPins *****************
 Defined at:
		line 257 in file "main.c"
 Parameters:    Size  Location     Type
		None
 Auto vars:     Size  Location     Type
		None
 Return value:  Size  Location     Type
                  1    wreg      void 
 Registers used:
		wreg, status,2, status,0
 Tracked objects:
		On entry : 
		On exit  : 
		Unchanged: 
 Data sizes:     COMMON   BANK0   BANK1   BANK2   BANK3   BANK4   BANK5   BANK6   BANK7   BANK8   BANK9  BANK10  BANK11  BANK12  BANK13  BANK14  BANK15  BANK16  BANK17  BANK18  BANK19  BANK20  BANK21  BANK22  BANK23  BANK24  BANK25
      Params:         0       0       0       0       0       0       0       0       0       0       0       0       0       0       0       0       0       0       0       0       0       0       0       0       0       0       0
      Locals:         0       0       0       0       0       0       0       0       0       0       0       0       0       0       0       0       0       0       0       0       0       0       0       0       0       0       0
      Temps:          0       4       0       0       0       0       0       0       0       0       0       0       0       0       0       0       0       0       0       0       0       0       0       0       0       0       0
      Totals:         0       4       0       0       0       0       0       0       0       0       0       0       0       0       0       0       0       0       0       0       0       0       0       0       0       0       0
Total ram usage:        4 bytes
 Hardware stack levels used:    1
 Hardware stack levels required when called:    6
 This function calls:
		Nothing
 This function is called by:
		_doMove
 This function uses a non-reentrant model


 *************** function _TMR2_StartTimer *****************
 Defined at:
		line 85 in file "mcc_generated_files/tmr2.c"
 Parameters:    Size  Location     Type
		None
 Auto vars:     Size  Location     Type
		None
 Return value:  Size  Location     Type
                  1    wreg      void 
 Registers used:
		None
 Tracked objects:
		On entry : 
		On exit  : 
		Unchanged: 
 Data sizes:     COMMON   BANK0   BANK1   BANK2   BANK3   BANK4   BANK5   BANK6   BANK7   BANK8   BANK9  BANK10  BANK11  BANK12  BANK13  BANK14  BANK15  BANK16  BANK17  BANK18  BANK19  BANK20  BANK21  BANK22  BANK23  BANK24  BANK25
      Params:         0       0       0       0       0       0       0       0       0       0       0       0       0       0       0       0       0       0       0       0       0       0       0       0       0       0       0
      Locals:         0       0       0       0       0       0       0       0       0       0       0       0       0       0       0       0       0       0       0       0       0       0       0       0       0       0       0
      Temps:          0       0       0       0       0       0       0       0       0       0       0       0       0       0       0       0       0       0       0       0       0       0       0       0       0       0       0
      Totals:         0       0       0       0       0       0       0       0       0       0       0       0       0       0       0       0       0       0       0       0       0       0       0       0       0       0       0
Total ram usage:        0 bytes
 Hardware stack levels used:    1
 Hardware stack levels required when called:    6
 This function calls:
		Nothing
 This function is called by:
		_doMove
 This function uses a non-reentrant model


 *************** function _TMR0_StartTimer *****************
 Defined at:
		line 85 in file "mcc_generated_files/tmr0.c"
 Parameters:    Size  Location     Type
		None
 Auto vars:     Size  Location     Type
		None
 Return value:  Size  Location     Type
                  1    wreg      void 
 Registers used:
		None
 Tracked objects:
		On entry : 
		On exit  : 
		Unchanged: 
 Data sizes:     COMMON   BANK0   BANK1   BANK2   BANK3   BANK4   BANK5   BANK6   BANK7   BANK8   BANK9  BANK10  BANK11  BANK12  BANK13  BANK14  BANK15  BANK16  BANK17  BANK18  BANK19  BANK20  BANK21  BANK22  BANK23  BANK24  BANK25
      Params:         0       0       0       0       0       0       0       0       0       0       0       0       0       0       0       0       0       0       0       0       0       0       0       0       0       0       0
      Locals:         0       0       0       0       0       0       0       0       0       0       0       0       0       0       0       0       0       0       0       0       0       0       0       0       0       0       0
      Temps:          0       0       0       0       0       0       0       0       0       0       0       0       0       0       0       0       0       0       0       0       0       0       0       0       0       0       0
      Totals:         0       0       0       0       0       0       0       0       0       0       0       0       0       0       0       0       0       0       0       0       0       0       0       0       0       0       0
Total ram usage:        0 bytes
 Hardware stack levels used:    1
 Hardware stack levels required when called:    6
 This function calls:
		Nothing
 This function is called by:
		_doMove
 This function uses a non-reentrant model


 *************** function _LEDsOn *****************
 Defined at:
		line 6 in file "LEDcomm.c"
 Parameters:    Size  Location     Type
  LEDpins         4   36[BANK0 ] unsigned long 
  topOrBottom     2   40[BANK0 ] int 
 Auto vars:     Size  Location     Type
		None
 Return value:  Size  Location     Type
                  1    wreg      void 
 Registers used:
		wreg, status,2, status,0, pclath, cstack
 Tracked objects:
		On entry : 
		On exit  : 
		Unchanged: 
 Data sizes:     COMMON   BANK0   BANK1   BANK2   BANK3   BANK4   BANK5   BANK6   BANK7   BANK8   BANK9  BANK10  BANK11  BANK12  BANK13  BANK14  BANK15  BANK16  BANK17  BANK18  BANK19  BANK20  BANK21  BANK22  BANK23  BANK24  BANK25
      Params:         0       6       0       0       0       0       0       0       0       0       0       0       0       0       0       0       0       0       0       0       0       0       0       0       0       0       0
      Locals:         0       0       0       0       0       0       0       0       0       0       0       0       0       0       0       0       0       0       0       0       0       0       0       0       0       0       0
      Temps:          0       4       0       0       0       0       0       0       0       0       0       0       0       0       0       0       0       0       0       0       0       0       0       0       0       0       0
      Totals:         0      10       0       0       0       0       0       0       0       0       0       0       0       0       0       0       0       0       0       0       0       0       0       0       0       0       0
Total ram usage:       10 bytes
 Hardware stack levels used:    1
 Hardware stack levels required when called:    8
 This function calls:
		_send_2length_2bytes_IK
 This function is called by:
		_LED_test_openshort
		_doMove
		_setHeaterToggle
		_demoSequence
 This function uses a non-reentrant model


 *************** function _send_2length_2bytes_IK *****************
 Defined at:
		line 70 in file "LEDcomm.c"
 Parameters:    Size  Location     Type
  data1           2   28[BANK0 ] unsigned int 
  data2           2   30[BANK0 ] unsigned int 
  latch_start     1   32[BANK0 ] unsigned char 
  topOrBottom     2   33[BANK0 ] int 
 Auto vars:     Size  Location     Type
		None
 Return value:  Size  Location     Type
                  1    wreg      void 
 Registers used:
		wreg, status,2, status,0, pclath, cstack
 Tracked objects:
		On entry : 
		On exit  : 
		Unchanged: 
 Data sizes:     COMMON   BANK0   BANK1   BANK2   BANK3   BANK4   BANK5   BANK6   BANK7   BANK8   BANK9  BANK10  BANK11  BANK12  BANK13  BANK14  BANK15  BANK16  BANK17  BANK18  BANK19  BANK20  BANK21  BANK22  BANK23  BANK24  BANK25
      Params:         0       7       0       0       0       0       0       0       0       0       0       0       0       0       0       0       0       0       0       0       0       0       0       0       0       0       0
      Locals:         0       0       0       0       0       0       0       0       0       0       0       0       0       0       0       0       0       0       0       0       0       0       0       0       0       0       0
      Temps:          0       1       0       0       0       0       0       0       0       0       0       0       0       0       0       0       0       0       0       0       0       0       0       0       0       0       0
      Totals:         0       8       0       0       0       0       0       0       0       0       0       0       0       0       0       0       0       0       0       0       0       0       0       0       0       0       0
Total ram usage:        8 bytes
 Hardware stack levels used:    1
 Hardware stack levels required when called:    7
 This function calls:
		_send_2bytes_latchless_IK
		_send_last_2bytes_IK
 This function is called by:
		_LEDsOn
		_LEDsPwr
		_LED_setBrightnessRange
		_LED_test_openshort
		_LED_readConfig
 This function uses a non-reentrant model


 *************** function _send_last_2bytes_IK *****************
 Defined at:
		line 19 in file "LEDcomm.c"
 Parameters:    Size  Location     Type
  data            2   17[BANK0 ] unsigned int 
  latch_start     1   19[BANK0 ] unsigned char 
  topOrBottom     2   20[BANK0 ] int 
 Auto vars:     Size  Location     Type
  j               2   26[BANK0 ] int 
 Return value:  Size  Location     Type
                  1    wreg      void 
 Registers used:
		wreg, status,2, status,0
 Tracked objects:
		On entry : 
		On exit  : 
		Unchanged: 
 Data sizes:     COMMON   BANK0   BANK1   BANK2   BANK3   BANK4   BANK5   BANK6   BANK7   BANK8   BANK9  BANK10  BANK11  BANK12  BANK13  BANK14  BANK15  BANK16  BANK17  BANK18  BANK19  BANK20  BANK21  BANK22  BANK23  BANK24  BANK25
      Params:         0       5       0       0       0       0       0       0       0       0       0       0       0       0       0       0       0       0       0       0       0       0       0       0       0       0       0
      Locals:         0       2       0       0       0       0       0       0       0       0       0       0       0       0       0       0       0       0       0       0       0       0       0       0       0       0       0
      Temps:          0       4       0       0       0       0       0       0       0       0       0       0       0       0       0       0       0       0       0       0       0       0       0       0       0       0       0
      Totals:         0      11       0       0       0       0       0       0       0       0       0       0       0       0       0       0       0       0       0       0       0       0       0       0       0       0       0
Total ram usage:       11 bytes
 Hardware stack levels used:    1
 Hardware stack levels required when called:    6
 This function calls:
		Nothing
 This function is called by:
		_send_2length_2bytes_IK
 This function uses a non-reentrant model


 *************** function _send_2bytes_latchless_IK *****************
 Defined at:
		line 49 in file "LEDcomm.c"
 Parameters:    Size  Location     Type
  data            2   17[BANK0 ] unsigned int 
 Auto vars:     Size  Location     Type
  j               2   23[BANK0 ] int 
 Return value:  Size  Location     Type
                  1    wreg      void 
 Registers used:
		wreg, status,2, status,0
 Tracked objects:
		On entry : 
		On exit  : 
		Unchanged: 
 Data sizes:     COMMON   BANK0   BANK1   BANK2   BANK3   BANK4   BANK5   BANK6   BANK7   BANK8   BANK9  BANK10  BANK11  BANK12  BANK13  BANK14  BANK15  BANK16  BANK17  BANK18  BANK19  BANK20  BANK21  BANK22  BANK23  BANK24  BANK25
      Params:         0       2       0       0       0       0       0       0       0       0       0       0       0       0       0       0       0       0       0       0       0       0       0       0       0       0       0
      Locals:         0       2       0       0       0       0       0       0       0       0       0       0       0       0       0       0       0       0       0       0       0       0       0       0       0       0       0
      Temps:          0       4       0       0       0       0       0       0       0       0       0       0       0       0       0       0       0       0       0       0       0       0       0       0       0       0       0
      Totals:         0       8       0       0       0       0       0       0       0       0       0       0       0       0       0       0       0       0       0       0       0       0       0       0       0       0       0
Total ram usage:        8 bytes
 Hardware stack levels used:    1
 Hardware stack levels required when called:    6
 This function calls:
		Nothing
 This function is called by:
		_send_2length_2bytes_IK
 This function uses a non-reentrant model


 *************** function _SYSTEM_Initialize *****************
 Defined at:
		line 77 in file "mcc_generated_files/mcc.c"
 Parameters:    Size  Location     Type
		None
 Auto vars:     Size  Location     Type
		None
 Return value:  Size  Location     Type
                  1    wreg      void 
 Registers used:
		wreg, status,2, status,0, pclath, cstack
 Tracked objects:
		On entry : 
		On exit  : 
		Unchanged: 
 Data sizes:     COMMON   BANK0   BANK1   BANK2   BANK3   BANK4   BANK5   BANK6   BANK7   BANK8   BANK9  BANK10  BANK11  BANK12  BANK13  BANK14  BANK15  BANK16  BANK17  BANK18  BANK19  BANK20  BANK21  BANK22  BANK23  BANK24  BANK25
      Params:         0       0       0       0       0       0       0       0       0       0       0       0       0       0       0       0       0       0       0       0       0       0       0       0       0       0       0
      Locals:         0       0       0       0       0       0       0       0       0       0       0       0       0       0       0       0       0       0       0       0       0       0       0       0       0       0       0
      Temps:          0       0       0       0       0       0       0       0       0       0       0       0       0       0       0       0       0       0       0       0       0       0       0       0       0       0       0
      Totals:         0       0       0       0       0       0       0       0       0       0       0       0       0       0       0       0       0       0       0       0       0       0       0       0       0       0       0
Total ram usage:        0 bytes
 Hardware stack levels used:    1
 Hardware stack levels required when called:    8
 This function calls:
		_EUSART_Initialize
		_OSCILLATOR_Initialize
		_PIN_MANAGER_Initialize
		_PMD_Initialize
		_TMR0_Initialize
		_TMR2_Initialize
		_WDT_Initialize
 This function is called by:
		_main
 This function uses a non-reentrant model


 *************** function _WDT_Initialize *****************
 Defined at:
		line 103 in file "mcc_generated_files/mcc.c"
 Parameters:    Size  Location     Type
		None
 Auto vars:     Size  Location     Type
		None
 Return value:  Size  Location     Type
                  1    wreg      void 
 Registers used:
		wreg
 Tracked objects:
		On entry : 
		On exit  : 
		Unchanged: 
 Data sizes:     COMMON   BANK0   BANK1   BANK2   BANK3   BANK4   BANK5   BANK6   BANK7   BANK8   BANK9  BANK10  BANK11  BANK12  BANK13  BANK14  BANK15  BANK16  BANK17  BANK18  BANK19  BANK20  BANK21  BANK22  BANK23  BANK24  BANK25
      Params:         0       0       0       0       0       0       0       0       0       0       0       0       0       0       0       0       0       0       0       0       0       0       0       0       0       0       0
      Locals:         0       0       0       0       0       0       0       0       0       0       0       0       0       0       0       0       0       0       0       0       0       0       0       0       0       0       0
      Temps:          0       0       0       0       0       0       0       0       0       0       0       0       0       0       0       0       0       0       0       0       0       0       0       0       0       0       0
      Totals:         0       0       0       0       0       0       0       0       0       0       0       0       0       0       0       0       0       0       0       0       0       0       0       0       0       0       0
Total ram usage:        0 bytes
 Hardware stack levels used:    1
 Hardware stack levels required when called:    6
 This function calls:
		Nothing
 This function is called by:
		_SYSTEM_Initialize
 This function uses a non-reentrant model


 *************** function _TMR2_Initialize *****************
 Defined at:
		line 62 in file "mcc_generated_files/tmr2.c"
 Parameters:    Size  Location     Type
		None
 Auto vars:     Size  Location     Type
		None
 Return value:  Size  Location     Type
                  1    wreg      void 
 Registers used:
		wreg, status,2, status,0, pclath, cstack
 Tracked objects:
		On entry : 
		On exit  : 
		Unchanged: 
 Data sizes:     COMMON   BANK0   BANK1   BANK2   BANK3   BANK4   BANK5   BANK6   BANK7   BANK8   BANK9  BANK10  BANK11  BANK12  BANK13  BANK14  BANK15  BANK16  BANK17  BANK18  BANK19  BANK20  BANK21  BANK22  BANK23  BANK24  BANK25
      Params:         0       0       0       0       0       0       0       0       0       0       0       0       0       0       0       0       0       0       0       0       0       0       0       0       0       0       0
      Locals:         0       0       0       0       0       0       0       0       0       0       0       0       0       0       0       0       0       0       0       0       0       0       0       0       0       0       0
      Temps:          0       0       0       0       0       0       0       0       0       0       0       0       0       0       0       0       0       0       0       0       0       0       0       0       0       0       0
      Totals:         0       0       0       0       0       0       0       0       0       0       0       0       0       0       0       0       0       0       0       0       0       0       0       0       0       0       0
Total ram usage:        0 bytes
 Hardware stack levels used:    1
 Hardware stack levels required when called:    7
 This function calls:
		_TMR2_SetInterruptHandler
 This function is called by:
		_SYSTEM_Initialize
 This function uses a non-reentrant model


 *************** function _TMR2_SetInterruptHandler *****************
 Defined at:
		line 130 in file "mcc_generated_files/tmr2.c"
 Parameters:    Size  Location     Type
  InterruptHan    2   17[BANK0 ] PTR FTN()void 
		 -> TMR2_DefaultInterruptHandler(1), 
 Auto vars:     Size  Location     Type
		None
 Return value:  Size  Location     Type
                  1    wreg      void 
 Registers used:
		wreg
 Tracked objects:
		On entry : 
		On exit  : 
		Unchanged: 
 Data sizes:     COMMON   BANK0   BANK1   BANK2   BANK3   BANK4   BANK5   BANK6   BANK7   BANK8   BANK9  BANK10  BANK11  BANK12  BANK13  BANK14  BANK15  BANK16  BANK17  BANK18  BANK19  BANK20  BANK21  BANK22  BANK23  BANK24  BANK25
      Params:         0       2       0       0       0       0       0       0       0       0       0       0       0       0       0       0       0       0       0       0       0       0       0       0       0       0       0
      Locals:         0       0       0       0       0       0       0       0       0       0       0       0       0       0       0       0       0       0       0       0       0       0       0       0       0       0       0
      Temps:          0       0       0       0       0       0       0       0       0       0       0       0       0       0       0       0       0       0       0       0       0       0       0       0       0       0       0
      Totals:         0       2       0       0       0       0       0       0       0       0       0       0       0       0       0       0       0       0       0       0       0       0       0       0       0       0       0
Total ram usage:        2 bytes
 Hardware stack levels used:    1
 Hardware stack levels required when called:    6
 This function calls:
		Nothing
 This function is called by:
		_TMR2_Initialize
 This function uses a non-reentrant model


 *************** function _TMR0_Initialize *****************
 Defined at:
		line 59 in file "mcc_generated_files/tmr0.c"
 Parameters:    Size  Location     Type
		None
 Auto vars:     Size  Location     Type
		None
 Return value:  Size  Location     Type
                  1    wreg      void 
 Registers used:
		wreg, status,2, status,0, pclath, cstack
 Tracked objects:
		On entry : 
		On exit  : 
		Unchanged: 
 Data sizes:     COMMON   BANK0   BANK1   BANK2   BANK3   BANK4   BANK5   BANK6   BANK7   BANK8   BANK9  BANK10  BANK11  BANK12  BANK13  BANK14  BANK15  BANK16  BANK17  BANK18  BANK19  BANK20  BANK21  BANK22  BANK23  BANK24  BANK25
      Params:         0       0       0       0       0       0       0       0       0       0       0       0       0       0       0       0       0       0       0       0       0       0       0       0       0       0       0
      Locals:         0       0       0       0       0       0       0       0       0       0       0       0       0       0       0       0       0       0       0       0       0       0       0       0       0       0       0
      Temps:          0       0       0       0       0       0       0       0       0       0       0       0       0       0       0       0       0       0       0       0       0       0       0       0       0       0       0
      Totals:         0       0       0       0       0       0       0       0       0       0       0       0       0       0       0       0       0       0       0       0       0       0       0       0       0       0       0
Total ram usage:        0 bytes
 Hardware stack levels used:    1
 Hardware stack levels required when called:    7
 This function calls:
		_TMR0_SetInterruptHandler
 This function is called by:
		_SYSTEM_Initialize
 This function uses a non-reentrant model


 *************** function _TMR0_SetInterruptHandler *****************
 Defined at:
		line 132 in file "mcc_generated_files/tmr0.c"
 Parameters:    Size  Location     Type
  InterruptHan    2   17[BANK0 ] PTR FTN()void 
		 -> TMR0_DefaultInterruptHandler(1), 
 Auto vars:     Size  Location     Type
		None
 Return value:  Size  Location     Type
                  1    wreg      void 
 Registers used:
		wreg
 Tracked objects:
		On entry : 
		On exit  : 
		Unchanged: 
 Data sizes:     COMMON   BANK0   BANK1   BANK2   BANK3   BANK4   BANK5   BANK6   BANK7   BANK8   BANK9  BANK10  BANK11  BANK12  BANK13  BANK14  BANK15  BANK16  BANK17  BANK18  BANK19  BANK20  BANK21  BANK22  BANK23  BANK24  BANK25
      Params:         0       2       0       0       0       0       0       0       0       0       0       0       0       0       0       0       0       0       0       0       0       0       0       0       0       0       0
      Locals:         0       0       0       0       0       0       0       0       0       0       0       0       0       0       0       0       0       0       0       0       0       0       0       0       0       0       0
      Temps:          0       0       0       0       0       0       0       0       0       0       0       0       0       0       0       0       0       0       0       0       0       0       0       0       0       0       0
      Totals:         0       2       0       0       0       0       0       0       0       0       0       0       0       0       0       0       0       0       0       0       0       0       0       0       0       0       0
Total ram usage:        2 bytes
 Hardware stack levels used:    1
 Hardware stack levels required when called:    6
 This function calls:
		Nothing
 This function is called by:
		_TMR0_Initialize
 This function uses a non-reentrant model


 *************** function _PMD_Initialize *****************
 Defined at:
		line 109 in file "mcc_generated_files/mcc.c"
 Parameters:    Size  Location     Type
		None
 Auto vars:     Size  Location     Type
		None
 Return value:  Size  Location     Type
                  1    wreg      void 
 Registers used:
		status,2
 Tracked objects:
		On entry : 
		On exit  : 
		Unchanged: 
 Data sizes:     COMMON   BANK0   BANK1   BANK2   BANK3   BANK4   BANK5   BANK6   BANK7   BANK8   BANK9  BANK10  BANK11  BANK12  BANK13  BANK14  BANK15  BANK16  BANK17  BANK18  BANK19  BANK20  BANK21  BANK22  BANK23  BANK24  BANK25
      Params:         0       0       0       0       0       0       0       0       0       0       0       0       0       0       0       0       0       0       0       0       0       0       0       0       0       0       0
      Locals:         0       0       0       0       0       0       0       0       0       0       0       0       0       0       0       0       0       0       0       0       0       0       0       0       0       0       0
      Temps:          0       0       0       0       0       0       0       0       0       0       0       0       0       0       0       0       0       0       0       0       0       0       0       0       0       0       0
      Totals:         0       0       0       0       0       0       0       0       0       0       0       0       0       0       0       0       0       0       0       0       0       0       0       0       0       0       0
Total ram usage:        0 bytes
 Hardware stack levels used:    1
 Hardware stack levels required when called:    6
 This function calls:
		Nothing
 This function is called by:
		_SYSTEM_Initialize
 This function uses a non-reentrant model


 *************** function _PIN_MANAGER_Initialize *****************
 Defined at:
		line 52 in file "mcc_generated_files/pin_manager.c"
 Parameters:    Size  Location     Type
		None
 Auto vars:     Size  Location     Type
		None
 Return value:  Size  Location     Type
                  1    wreg      void 
 Registers used:
		wreg, status,2, status,0
 Tracked objects:
		On entry : 
		On exit  : 
		Unchanged: 
 Data sizes:     COMMON   BANK0   BANK1   BANK2   BANK3   BANK4   BANK5   BANK6   BANK7   BANK8   BANK9  BANK10  BANK11  BANK12  BANK13  BANK14  BANK15  BANK16  BANK17  BANK18  BANK19  BANK20  BANK21  BANK22  BANK23  BANK24  BANK25
      Params:         0       0       0       0       0       0       0       0       0       0       0       0       0       0       0       0       0       0       0       0       0       0       0       0       0       0       0
      Locals:         0       0       0       0       0       0       0       0       0       0       0       0       0       0       0       0       0       0       0       0       0       0       0       0       0       0       0
      Temps:          0       0       0       0       0       0       0       0       0       0       0       0       0       0       0       0       0       0       0       0       0       0       0       0       0       0       0
      Totals:         0       0       0       0       0       0       0       0       0       0       0       0       0       0       0       0       0       0       0       0       0       0       0       0       0       0       0
Total ram usage:        0 bytes
 Hardware stack levels used:    1
 Hardware stack levels required when called:    6
 This function calls:
		Nothing
 This function is called by:
		_SYSTEM_Initialize
 This function uses a non-reentrant model


 *************** function _OSCILLATOR_Initialize *****************
 Defined at:
		line 89 in file "mcc_generated_files/mcc.c"
 Parameters:    Size  Location     Type
		None
 Auto vars:     Size  Location     Type
		None
 Return value:  Size  Location     Type
                  1    wreg      void 
 Registers used:
		wreg, status,2
 Tracked objects:
		On entry : 
		On exit  : 
		Unchanged: 
 Data sizes:     COMMON   BANK0   BANK1   BANK2   BANK3   BANK4   BANK5   BANK6   BANK7   BANK8   BANK9  BANK10  BANK11  BANK12  BANK13  BANK14  BANK15  BANK16  BANK17  BANK18  BANK19  BANK20  BANK21  BANK22  BANK23  BANK24  BANK25
      Params:         0       0       0       0       0       0       0       0       0       0       0       0       0       0       0       0       0       0       0       0       0       0       0       0       0       0       0
      Locals:         0       0       0       0       0       0       0       0       0       0       0       0       0       0       0       0       0       0       0       0       0       0       0       0       0       0       0
      Temps:          0       0       0       0       0       0       0       0       0       0       0       0       0       0       0       0       0       0       0       0       0       0       0       0       0       0       0
      Totals:         0       0       0       0       0       0       0       0       0       0       0       0       0       0       0       0       0       0       0       0       0       0       0       0       0       0       0
Total ram usage:        0 bytes
 Hardware stack levels used:    1
 Hardware stack levels required when called:    6
 This function calls:
		Nothing
 This function is called by:
		_SYSTEM_Initialize
 This function uses a non-reentrant model


 *************** function _EUSART_Initialize *****************
 Defined at:
		line 72 in file "mcc_generated_files/eusart.c"
 Parameters:    Size  Location     Type
		None
 Auto vars:     Size  Location     Type
		None
 Return value:  Size  Location     Type
                  1    wreg      void 
 Registers used:
		wreg, status,2
 Tracked objects:
		On entry : 
		On exit  : 
		Unchanged: 
 Data sizes:     COMMON   BANK0   BANK1   BANK2   BANK3   BANK4   BANK5   BANK6   BANK7   BANK8   BANK9  BANK10  BANK11  BANK12  BANK13  BANK14  BANK15  BANK16  BANK17  BANK18  BANK19  BANK20  BANK21  BANK22  BANK23  BANK24  BANK25
      Params:         0       0       0       0       0       0       0       0       0       0       0       0       0       0       0       0       0       0       0       0       0       0       0       0       0       0       0
      Locals:         0       0       0       0       0       0       0       0       0       0       0       0       0       0       0       0       0       0       0       0       0       0       0       0       0       0       0
      Temps:          0       1       0       0       0       0       0       0       0       0       0       0       0       0       0       0       0       0       0       0       0       0       0       0       0       0       0
      Totals:         0       1       0       0       0       0       0       0       0       0       0       0       0       0       0       0       0       0       0       0       0       0       0       0       0       0       0
Total ram usage:        1 bytes
 Hardware stack levels used:    1
 Hardware stack levels required when called:    6
 This function calls:
		Nothing
 This function is called by:
		_SYSTEM_Initialize
 This function uses a non-reentrant model


 *************** function _EUSART_Read *****************
 Defined at:
		line 108 in file "mcc_generated_files/eusart.c"
 Parameters:    Size  Location     Type
		None
 Auto vars:     Size  Location     Type
  readValue       1   18[BANK0 ] unsigned char 
 Return value:  Size  Location     Type
                  1    wreg      unsigned char 
 Registers used:
		wreg, fsr1l, fsr1h, status,2, status,0
 Tracked objects:
		On entry : 
		On exit  : 
		Unchanged: 
 Data sizes:     COMMON   BANK0   BANK1   BANK2   BANK3   BANK4   BANK5   BANK6   BANK7   BANK8   BANK9  BANK10  BANK11  BANK12  BANK13  BANK14  BANK15  BANK16  BANK17  BANK18  BANK19  BANK20  BANK21  BANK22  BANK23  BANK24  BANK25
      Params:         0       0       0       0       0       0       0       0       0       0       0       0       0       0       0       0       0       0       0       0       0       0       0       0       0       0       0
      Locals:         0       1       0       0       0       0       0       0       0       0       0       0       0       0       0       0       0       0       0       0       0       0       0       0       0       0       0
      Temps:          0       1       0       0       0       0       0       0       0       0       0       0       0       0       0       0       0       0       0       0       0       0       0       0       0       0       0
      Totals:         0       2       0       0       0       0       0       0       0       0       0       0       0       0       0       0       0       0       0       0       0       0       0       0       0       0       0
Total ram usage:        2 bytes
 Hardware stack levels used:    1
 Hardware stack levels required when called:    6
 This function calls:
		Nothing
 This function is called by:
		_main
		_getch
 This function uses a non-reentrant model


 *************** function _INTERRUPT_InterruptManager *****************
 Defined at:
		line 51 in file "mcc_generated_files/interrupt_manager.c"
 Parameters:    Size  Location     Type
		None
 Auto vars:     Size  Location     Type
		None
 Return value:  Size  Location     Type
                  1    wreg      void 
 Registers used:
		wreg, fsr0l, fsr0h, fsr1l, fsr1h, status,2, status,0, pclath, cstack
 Tracked objects:
		On entry : 
		On exit  : 
		Unchanged: 
 Data sizes:     COMMON   BANK0   BANK1   BANK2   BANK3   BANK4   BANK5   BANK6   BANK7   BANK8   BANK9  BANK10  BANK11  BANK12  BANK13  BANK14  BANK15  BANK16  BANK17  BANK18  BANK19  BANK20  BANK21  BANK22  BANK23  BANK24  BANK25
      Params:         0       0       0       0       0       0       0       0       0       0       0       0       0       0       0       0       0       0       0       0       0       0       0       0       0       0       0
      Locals:         0       0       0       0       0       0       0       0       0       0       0       0       0       0       0       0       0       0       0       0       0       0       0       0       0       0       0
      Temps:          1       0       0       0       0       0       0       0       0       0       0       0       0       0       0       0       0       0       0       0       0       0       0       0       0       0       0
      Totals:         1       0       0       0       0       0       0       0       0       0       0       0       0       0       0       0       0       0       0       0       0       0       0       0       0       0       0
Total ram usage:        1 bytes
 Hardware stack levels used:    1
 Hardware stack levels required when called:    5
 This function calls:
		Absolute function
		_EUSART_Receive_ISR
		_EUSART_Transmit_ISR
		_TMR0_ISR
		_TMR2_ISR
		_i2c_busCollisionISR
		i1_i2c_ISR
 This function is called by:
		Interrupt level 1
 This function uses a non-reentrant model


 *************** function i1_i2c_ISR *****************
 Defined at:
		line 419 in file "mcc_generated_files/drivers/i2c_master.c"
 Parameters:    Size  Location     Type
		None
 Auto vars:     Size  Location     Type
		None
 Return value:  Size  Location     Type
                  1    wreg      void 
 Registers used:
		wreg, fsr0l, fsr0h, fsr1l, fsr1h, status,2, status,0, pclath, cstack
 Tracked objects:
		On entry : 
		On exit  : 
		Unchanged: 
 Data sizes:     COMMON   BANK0   BANK1   BANK2   BANK3   BANK4   BANK5   BANK6   BANK7   BANK8   BANK9  BANK10  BANK11  BANK12  BANK13  BANK14  BANK15  BANK16  BANK17  BANK18  BANK19  BANK20  BANK21  BANK22  BANK23  BANK24  BANK25
      Params:         0       0       0       0       0       0       0       0       0       0       0       0       0       0       0       0       0       0       0       0       0       0       0       0       0       0       0
      Locals:         0       0       0       0       0       0       0       0       0       0       0       0       0       0       0       0       0       0       0       0       0       0       0       0       0       0       0
      Temps:          1       0       0       0       0       0       0       0       0       0       0       0       0       0       0       0       0       0       0       0       0       0       0       0       0       0       0
      Totals:         1       0       0       0       0       0       0       0       0       0       0       0       0       0       0       0       0       0       0       0       0       0       0       0       0       0       0
Total ram usage:        1 bytes
 Hardware stack levels used:    1
 Hardware stack levels required when called:    3
 This function calls:
		i1_do_I2C_DO_ACK
		i1_do_I2C_DO_ADDRESS_NACK
		i1_do_I2C_DO_NACK_RESTART
		i1_do_I2C_DO_NACK_STOP
		i1_do_I2C_IDLE
		i1_do_I2C_RCEN
		i1_do_I2C_RESET
		i1_do_I2C_RX
		i1_do_I2C_SEND_ADR_READ
		i1_do_I2C_SEND_ADR_WRITE
		i1_do_I2C_SEND_RESTART
		i1_do_I2C_SEND_RESTART_READ
		i1_do_I2C_SEND_RESTART_WRITE
		i1_do_I2C_SEND_STOP
		i1_do_I2C_TX
		i1_do_I2C_TX_EMPTY
		i1_i2c1_driver_isNACK
		i1_mssp1_clearIRQ
 This function is called by:
 This function uses a non-reentrant model


 *************** function i1_mssp1_clearIRQ *****************
 Defined at:
		line 53 in file "mcc_generated_files/i2c1_driver.c"
 Parameters:    Size  Location     Type
		None
 Auto vars:     Size  Location     Type
		None
 Return value:  Size  Location     Type
                  1    wreg      void 
 Registers used:
		None
 Tracked objects:
		On entry : 
		On exit  : 
		Unchanged: 
 Data sizes:     COMMON   BANK0   BANK1   BANK2   BANK3   BANK4   BANK5   BANK6   BANK7   BANK8   BANK9  BANK10  BANK11  BANK12  BANK13  BANK14  BANK15  BANK16  BANK17  BANK18  BANK19  BANK20  BANK21  BANK22  BANK23  BANK24  BANK25
      Params:         0       0       0       0       0       0       0       0       0       0       0       0       0       0       0       0       0       0       0       0       0       0       0       0       0       0       0
      Locals:         0       0       0       0       0       0       0       0       0       0       0       0       0       0       0       0       0       0       0       0       0       0       0       0       0       0       0
      Temps:          0       0       0       0       0       0       0       0       0       0       0       0       0       0       0       0       0       0       0       0       0       0       0       0       0       0       0
      Totals:         0       0       0       0       0       0       0       0       0       0       0       0       0       0       0       0       0       0       0       0       0       0       0       0       0       0       0
Total ram usage:        0 bytes
 Hardware stack levels used:    1
 This function calls:
		Nothing
 This function is called by:
		i1_i2c_ISR
 This function uses a non-reentrant model


 *************** function i1_do_I2C_RX *****************
 Defined at:
		line 357 in file "mcc_generated_files/drivers/i2c_master.c"
 Parameters:    Size  Location     Type
		None
 Auto vars:     Size  Location     Type
		None
 Return value:  Size  Location     Type
                  1    wreg      enum E8364
 Registers used:
		wreg, fsr0l, fsr0h, fsr1l, fsr1h, status,2, status,0, pclath, cstack
 Tracked objects:
		On entry : 
		On exit  : 
		Unchanged: 
 Data sizes:     COMMON   BANK0   BANK1   BANK2   BANK3   BANK4   BANK5   BANK6   BANK7   BANK8   BANK9  BANK10  BANK11  BANK12  BANK13  BANK14  BANK15  BANK16  BANK17  BANK18  BANK19  BANK20  BANK21  BANK22  BANK23  BANK24  BANK25
      Params:         0       0       0       0       0       0       0       0       0       0       0       0       0       0       0       0       0       0       0       0       0       0       0       0       0       0       0
      Locals:         0       0       0       0       0       0       0       0       0       0       0       0       0       0       0       0       0       0       0       0       0       0       0       0       0       0       0
      Temps:          1       0       0       0       0       0       0       0       0       0       0       0       0       0       0       0       0       0       0       0       0       0       0       0       0       0       0
      Totals:         1       0       0       0       0       0       0       0       0       0       0       0       0       0       0       0       0       0       0       0       0       0       0       0       0       0       0
Total ram usage:        1 bytes
 Hardware stack levels used:    1
 Hardware stack levels required when called:    2
 This function calls:
		i1_do_I2C_DO_NACK_RESTART
		i1_do_I2C_DO_NACK_STOP
		i1_i2c1_driver_getRXData
		i1_i2c1_driver_sendACK
		i1_returnReset
		i1_returnStop
 This function is called by:
 This function uses a non-reentrant model


 *************** function i1_do_I2C_TX *****************
 Defined at:
		line 333 in file "mcc_generated_files/drivers/i2c_master.c"
 Parameters:    Size  Location     Type
		None
 Auto vars:     Size  Location     Type
		None
 Return value:  Size  Location     Type
                  1    wreg      enum E8364
 Registers used:
		wreg, fsr0l, fsr0h, fsr1l, fsr1h, status,2, status,0, pclath, cstack
 Tracked objects:
		On entry : 
		On exit  : 
		Unchanged: 
 Data sizes:     COMMON   BANK0   BANK1   BANK2   BANK3   BANK4   BANK5   BANK6   BANK7   BANK8   BANK9  BANK10  BANK11  BANK12  BANK13  BANK14  BANK15  BANK16  BANK17  BANK18  BANK19  BANK20  BANK21  BANK22  BANK23  BANK24  BANK25
      Params:         0       0       0       0       0       0       0       0       0       0       0       0       0       0       0       0       0       0       0       0       0       0       0       0       0       0       0
      Locals:         2       0       0       0       0       0       0       0       0       0       0       0       0       0       0       0       0       0       0       0       0       0       0       0       0       0       0
      Temps:          2       0       0       0       0       0       0       0       0       0       0       0       0       0       0       0       0       0       0       0       0       0       0       0       0       0       0
      Totals:         4       0       0       0       0       0       0       0       0       0       0       0       0       0       0       0       0       0       0       0       0       0       0       0       0       0       0
Total ram usage:        4 bytes
 Hardware stack levels used:    1
 Hardware stack levels required when called:    2
 This function calls:
		i1_do_I2C_SEND_RESTART_READ
		i1_do_I2C_SEND_RESTART_WRITE
		i1_do_I2C_SEND_STOP
		i1_i2c1_driver_TXData
		i1_i2c1_driver_isNACK
		i1_returnReset
		i1_returnStop
 This function is called by:
 This function uses a non-reentrant model


 *************** function i1_do_I2C_DO_ADDRESS_NACK *****************
 Defined at:
		line 319 in file "mcc_generated_files/drivers/i2c_master.c"
 Parameters:    Size  Location     Type
		None
 Auto vars:     Size  Location     Type
		None
 Return value:  Size  Location     Type
                  1    wreg      enum E8364
 Registers used:
		wreg, fsr0l, fsr0h, fsr1l, fsr1h, status,2, status,0, pclath, cstack
 Tracked objects:
		On entry : 
		On exit  : 
		Unchanged: 
 Data sizes:     COMMON   BANK0   BANK1   BANK2   BANK3   BANK4   BANK5   BANK6   BANK7   BANK8   BANK9  BANK10  BANK11  BANK12  BANK13  BANK14  BANK15  BANK16  BANK17  BANK18  BANK19  BANK20  BANK21  BANK22  BANK23  BANK24  BANK25
      Params:         0       0       0       0       0       0       0       0       0       0       0       0       0       0       0       0       0       0       0       0       0       0       0       0       0       0       0
      Locals:         0       0       0       0       0       0       0       0       0       0       0       0       0       0       0       0       0       0       0       0       0       0       0       0       0       0       0
      Temps:          1       0       0       0       0       0       0       0       0       0       0       0       0       0       0       0       0       0       0       0       0       0       0       0       0       0       0
      Totals:         1       0       0       0       0       0       0       0       0       0       0       0       0       0       0       0       0       0       0       0       0       0       0       0       0       0       0
Total ram usage:        1 bytes
 Hardware stack levels used:    1
 Hardware stack levels required when called:    2
 This function calls:
		i1_do_I2C_SEND_RESTART
		i1_do_I2C_SEND_STOP
		i1_returnReset
		i1_returnStop
 This function is called by:
 This function uses a non-reentrant model


 *************** function i1_do_I2C_DO_NACK_RESTART *****************
 Defined at:
		line 311 in file "mcc_generated_files/drivers/i2c_master.c"
 Parameters:    Size  Location     Type
		None
 Auto vars:     Size  Location     Type
		None
 Return value:  Size  Location     Type
                  1    wreg      enum E8364
 Registers used:
		wreg, status,2, status,0, pclath, cstack
 Tracked objects:
		On entry : 
		On exit  : 
		Unchanged: 
 Data sizes:     COMMON   BANK0   BANK1   BANK2   BANK3   BANK4   BANK5   BANK6   BANK7   BANK8   BANK9  BANK10  BANK11  BANK12  BANK13  BANK14  BANK15  BANK16  BANK17  BANK18  BANK19  BANK20  BANK21  BANK22  BANK23  BANK24  BANK25
      Params:         0       0       0       0       0       0       0       0       0       0       0       0       0       0       0       0       0       0       0       0       0       0       0       0       0       0       0
      Locals:         0       0       0       0       0       0       0       0       0       0       0       0       0       0       0       0       0       0       0       0       0       0       0       0       0       0       0
      Temps:          0       0       0       0       0       0       0       0       0       0       0       0       0       0       0       0       0       0       0       0       0       0       0       0       0       0       0
      Totals:         0       0       0       0       0       0       0       0       0       0       0       0       0       0       0       0       0       0       0       0       0       0       0       0       0       0       0
Total ram usage:        0 bytes
 Hardware stack levels used:    1
 Hardware stack levels required when called:    1
 This function calls:
		i1_i2c1_driver_sendNACK
 This function is called by:
		i1_do_I2C_RX
 This function uses a non-reentrant model


 *************** function i1_do_I2C_DO_NACK_STOP *****************
 Defined at:
		line 305 in file "mcc_generated_files/drivers/i2c_master.c"
 Parameters:    Size  Location     Type
		None
 Auto vars:     Size  Location     Type
		None
 Return value:  Size  Location     Type
                  1    wreg      enum E8364
 Registers used:
		wreg, status,2, status,0, pclath, cstack
 Tracked objects:
		On entry : 
		On exit  : 
		Unchanged: 
 Data sizes:     COMMON   BANK0   BANK1   BANK2   BANK3   BANK4   BANK5   BANK6   BANK7   BANK8   BANK9  BANK10  BANK11  BANK12  BANK13  BANK14  BANK15  BANK16  BANK17  BANK18  BANK19  BANK20  BANK21  BANK22  BANK23  BANK24  BANK25
      Params:         0       0       0       0       0       0       0       0       0       0       0       0       0       0       0       0       0       0       0       0       0       0       0       0       0       0       0
      Locals:         0       0       0       0       0       0       0       0       0       0       0       0       0       0       0       0       0       0       0       0       0       0       0       0       0       0       0
      Temps:          0       0       0       0       0       0       0       0       0       0       0       0       0       0       0       0       0       0       0       0       0       0       0       0       0       0       0
      Totals:         0       0       0       0       0       0       0       0       0       0       0       0       0       0       0       0       0       0       0       0       0       0       0       0       0       0       0
Total ram usage:        0 bytes
 Hardware stack levels used:    1
 Hardware stack levels required when called:    1
 This function calls:
		i1_i2c1_driver_sendNACK
 This function is called by:
		i1_do_I2C_RX
 This function uses a non-reentrant model


 *************** function i1_do_I2C_DO_ACK *****************
 Defined at:
		line 299 in file "mcc_generated_files/drivers/i2c_master.c"
 Parameters:    Size  Location     Type
		None
 Auto vars:     Size  Location     Type
		None
 Return value:  Size  Location     Type
                  1    wreg      enum E8364
 Registers used:
		wreg, status,2, status,0, pclath, cstack
 Tracked objects:
		On entry : 
		On exit  : 
		Unchanged: 
 Data sizes:     COMMON   BANK0   BANK1   BANK2   BANK3   BANK4   BANK5   BANK6   BANK7   BANK8   BANK9  BANK10  BANK11  BANK12  BANK13  BANK14  BANK15  BANK16  BANK17  BANK18  BANK19  BANK20  BANK21  BANK22  BANK23  BANK24  BANK25
      Params:         0       0       0       0       0       0       0       0       0       0       0       0       0       0       0       0       0       0       0       0       0       0       0       0       0       0       0
      Locals:         0       0       0       0       0       0       0       0       0       0       0       0       0       0       0       0       0       0       0       0       0       0       0       0       0       0       0
      Temps:          0       0       0       0       0       0       0       0       0       0       0       0       0       0       0       0       0       0       0       0       0       0       0       0       0       0       0
      Totals:         0       0       0       0       0       0       0       0       0       0       0       0       0       0       0       0       0       0       0       0       0       0       0       0       0       0       0
Total ram usage:        0 bytes
 Hardware stack levels used:    1
 Hardware stack levels required when called:    1
 This function calls:
		i1_i2c1_driver_sendACK
 This function is called by:
 This function uses a non-reentrant model


 *************** function i1_do_I2C_RCEN *****************
 Defined at:
		line 292 in file "mcc_generated_files/drivers/i2c_master.c"
 Parameters:    Size  Location     Type
		None
 Auto vars:     Size  Location     Type
		None
 Return value:  Size  Location     Type
                  1    wreg      enum E8364
 Registers used:
		wreg, status,2, status,0, pclath, cstack
 Tracked objects:
		On entry : 
		On exit  : 
		Unchanged: 
 Data sizes:     COMMON   BANK0   BANK1   BANK2   BANK3   BANK4   BANK5   BANK6   BANK7   BANK8   BANK9  BANK10  BANK11  BANK12  BANK13  BANK14  BANK15  BANK16  BANK17  BANK18  BANK19  BANK20  BANK21  BANK22  BANK23  BANK24  BANK25
      Params:         0       0       0       0       0       0       0       0       0       0       0       0       0       0       0       0       0       0       0       0       0       0       0       0       0       0       0
      Locals:         0       0       0       0       0       0       0       0       0       0       0       0       0       0       0       0       0       0       0       0       0       0       0       0       0       0       0
      Temps:          0       0       0       0       0       0       0       0       0       0       0       0       0       0       0       0       0       0       0       0       0       0       0       0       0       0       0
      Totals:         0       0       0       0       0       0       0       0       0       0       0       0       0       0       0       0       0       0       0       0       0       0       0       0       0       0       0
Total ram usage:        0 bytes
 Hardware stack levels used:    1
 Hardware stack levels required when called:    1
 This function calls:
		i1_i2c1_driver_startRX
 This function is called by:
 This function uses a non-reentrant model


 *************** function i1_do_I2C_SEND_ADR_WRITE *****************
 Defined at:
		line 285 in file "mcc_generated_files/drivers/i2c_master.c"
 Parameters:    Size  Location     Type
		None
 Auto vars:     Size  Location     Type
		None
 Return value:  Size  Location     Type
                  1    wreg      enum E8364
 Registers used:
		wreg, status,2, status,0, pclath, cstack
 Tracked objects:
		On entry : 
		On exit  : 
		Unchanged: 
 Data sizes:     COMMON   BANK0   BANK1   BANK2   BANK3   BANK4   BANK5   BANK6   BANK7   BANK8   BANK9  BANK10  BANK11  BANK12  BANK13  BANK14  BANK15  BANK16  BANK17  BANK18  BANK19  BANK20  BANK21  BANK22  BANK23  BANK24  BANK25
      Params:         0       0       0       0       0       0       0       0       0       0       0       0       0       0       0       0       0       0       0       0       0       0       0       0       0       0       0
      Locals:         0       0       0       0       0       0       0       0       0       0       0       0       0       0       0       0       0       0       0       0       0       0       0       0       0       0       0
      Temps:          0       0       0       0       0       0       0       0       0       0       0       0       0       0       0       0       0       0       0       0       0       0       0       0       0       0       0
      Totals:         0       0       0       0       0       0       0       0       0       0       0       0       0       0       0       0       0       0       0       0       0       0       0       0       0       0       0
Total ram usage:        0 bytes
 Hardware stack levels used:    1
 Hardware stack levels required when called:    1
 This function calls:
		i1_i2c1_driver_TXData
 This function is called by:
 This function uses a non-reentrant model


 *************** function i1_do_I2C_SEND_ADR_READ *****************
 Defined at:
		line 278 in file "mcc_generated_files/drivers/i2c_master.c"
 Parameters:    Size  Location     Type
		None
 Auto vars:     Size  Location     Type
		None
 Return value:  Size  Location     Type
                  1    wreg      enum E8364
 Registers used:
		wreg, status,2, status,0, pclath, cstack
 Tracked objects:
		On entry : 
		On exit  : 
		Unchanged: 
 Data sizes:     COMMON   BANK0   BANK1   BANK2   BANK3   BANK4   BANK5   BANK6   BANK7   BANK8   BANK9  BANK10  BANK11  BANK12  BANK13  BANK14  BANK15  BANK16  BANK17  BANK18  BANK19  BANK20  BANK21  BANK22  BANK23  BANK24  BANK25
      Params:         0       0       0       0       0       0       0       0       0       0       0       0       0       0       0       0       0       0       0       0       0       0       0       0       0       0       0
      Locals:         0       0       0       0       0       0       0       0       0       0       0       0       0       0       0       0       0       0       0       0       0       0       0       0       0       0       0
      Temps:          0       0       0       0       0       0       0       0       0       0       0       0       0       0       0       0       0       0       0       0       0       0       0       0       0       0       0
      Totals:         0       0       0       0       0       0       0       0       0       0       0       0       0       0       0       0       0       0       0       0       0       0       0       0       0       0       0
Total ram usage:        0 bytes
 Hardware stack levels used:    1
 Hardware stack levels required when called:    1
 This function calls:
		i1_i2c1_driver_TXData
 This function is called by:
 This function uses a non-reentrant model


 *************** function i1_do_I2C_SEND_STOP *****************
 Defined at:
		line 272 in file "mcc_generated_files/drivers/i2c_master.c"
 Parameters:    Size  Location     Type
		None
 Auto vars:     Size  Location     Type
		None
 Return value:  Size  Location     Type
                  1    wreg      enum E8364
 Registers used:
		wreg, status,2, status,0, pclath, cstack
 Tracked objects:
		On entry : 
		On exit  : 
		Unchanged: 
 Data sizes:     COMMON   BANK0   BANK1   BANK2   BANK3   BANK4   BANK5   BANK6   BANK7   BANK8   BANK9  BANK10  BANK11  BANK12  BANK13  BANK14  BANK15  BANK16  BANK17  BANK18  BANK19  BANK20  BANK21  BANK22  BANK23  BANK24  BANK25
      Params:         0       0       0       0       0       0       0       0       0       0       0       0       0       0       0       0       0       0       0       0       0       0       0       0       0       0       0
      Locals:         0       0       0       0       0       0       0       0       0       0       0       0       0       0       0       0       0       0       0       0       0       0       0       0       0       0       0
      Temps:          0       0       0       0       0       0       0       0       0       0       0       0       0       0       0       0       0       0       0       0       0       0       0       0       0       0       0
      Totals:         0       0       0       0       0       0       0       0       0       0       0       0       0       0       0       0       0       0       0       0       0       0       0       0       0       0       0
Total ram usage:        0 bytes
 Hardware stack levels used:    1
 Hardware stack levels required when called:    1
 This function calls:
		i1_i2c1_driver_stop
 This function is called by:
		i1_do_I2C_DO_ADDRESS_NACK
		i1_do_I2C_TX
		i1_do_I2C_TX_EMPTY
 This function uses a non-reentrant model


 *************** function i1_do_I2C_SEND_RESTART *****************
 Defined at:
		line 266 in file "mcc_generated_files/drivers/i2c_master.c"
 Parameters:    Size  Location     Type
		None
 Auto vars:     Size  Location     Type
		None
 Return value:  Size  Location     Type
                  1    wreg      enum E8364
 Registers used:
		wreg, status,2, status,0, pclath, cstack
 Tracked objects:
		On entry : 
		On exit  : 
		Unchanged: 
 Data sizes:     COMMON   BANK0   BANK1   BANK2   BANK3   BANK4   BANK5   BANK6   BANK7   BANK8   BANK9  BANK10  BANK11  BANK12  BANK13  BANK14  BANK15  BANK16  BANK17  BANK18  BANK19  BANK20  BANK21  BANK22  BANK23  BANK24  BANK25
      Params:         0       0       0       0       0       0       0       0       0       0       0       0       0       0       0       0       0       0       0       0       0       0       0       0       0       0       0
      Locals:         0       0       0       0       0       0       0       0       0       0       0       0       0       0       0       0       0       0       0       0       0       0       0       0       0       0       0
      Temps:          0       0       0       0       0       0       0       0       0       0       0       0       0       0       0       0       0       0       0       0       0       0       0       0       0       0       0
      Totals:         0       0       0       0       0       0       0       0       0       0       0       0       0       0       0       0       0       0       0       0       0       0       0       0       0       0       0
Total ram usage:        0 bytes
 Hardware stack levels used:    1
 Hardware stack levels required when called:    1
 This function calls:
		i1_i2c1_driver_restart
 This function is called by:
		i1_do_I2C_DO_ADDRESS_NACK
		i1_do_I2C_TX_EMPTY
 This function uses a non-reentrant model


 *************** function i1_do_I2C_SEND_RESTART_WRITE *****************
 Defined at:
		line 260 in file "mcc_generated_files/drivers/i2c_master.c"
 Parameters:    Size  Location     Type
		None
 Auto vars:     Size  Location     Type
		None
 Return value:  Size  Location     Type
                  1    wreg      enum E8364
 Registers used:
		wreg, status,2, status,0, pclath, cstack
 Tracked objects:
		On entry : 
		On exit  : 
		Unchanged: 
 Data sizes:     COMMON   BANK0   BANK1   BANK2   BANK3   BANK4   BANK5   BANK6   BANK7   BANK8   BANK9  BANK10  BANK11  BANK12  BANK13  BANK14  BANK15  BANK16  BANK17  BANK18  BANK19  BANK20  BANK21  BANK22  BANK23  BANK24  BANK25
      Params:         0       0       0       0       0       0       0       0       0       0       0       0       0       0       0       0       0       0       0       0       0       0       0       0       0       0       0
      Locals:         0       0       0       0       0       0       0       0       0       0       0       0       0       0       0       0       0       0       0       0       0       0       0       0       0       0       0
      Temps:          0       0       0       0       0       0       0       0       0       0       0       0       0       0       0       0       0       0       0       0       0       0       0       0       0       0       0
      Totals:         0       0       0       0       0       0       0       0       0       0       0       0       0       0       0       0       0       0       0       0       0       0       0       0       0       0       0
Total ram usage:        0 bytes
 Hardware stack levels used:    1
 Hardware stack levels required when called:    1
 This function calls:
		i1_i2c1_driver_restart
 This function is called by:
		i1_do_I2C_TX
 This function uses a non-reentrant model


 *************** function i1_do_I2C_SEND_RESTART_READ *****************
 Defined at:
		line 254 in file "mcc_generated_files/drivers/i2c_master.c"
 Parameters:    Size  Location     Type
		None
 Auto vars:     Size  Location     Type
		None
 Return value:  Size  Location     Type
                  1    wreg      enum E8364
 Registers used:
		wreg, status,2, status,0, pclath, cstack
 Tracked objects:
		On entry : 
		On exit  : 
		Unchanged: 
 Data sizes:     COMMON   BANK0   BANK1   BANK2   BANK3   BANK4   BANK5   BANK6   BANK7   BANK8   BANK9  BANK10  BANK11  BANK12  BANK13  BANK14  BANK15  BANK16  BANK17  BANK18  BANK19  BANK20  BANK21  BANK22  BANK23  BANK24  BANK25
      Params:         0       0       0       0       0       0       0       0       0       0       0       0       0       0       0       0       0       0       0       0       0       0       0       0       0       0       0
      Locals:         0       0       0       0       0       0       0       0       0       0       0       0       0       0       0       0       0       0       0       0       0       0       0       0       0       0       0
      Temps:          0       0       0       0       0       0       0       0       0       0       0       0       0       0       0       0       0       0       0       0       0       0       0       0       0       0       0
      Totals:         0       0       0       0       0       0       0       0       0       0       0       0       0       0       0       0       0       0       0       0       0       0       0       0       0       0       0
Total ram usage:        0 bytes
 Hardware stack levels used:    1
 Hardware stack levels required when called:    1
 This function calls:
		i1_i2c1_driver_restart
 This function is called by:
		i1_do_I2C_TX
 This function uses a non-reentrant model


 *************** function i1_do_I2C_IDLE *****************
 Defined at:
		line 247 in file "mcc_generated_files/drivers/i2c_master.c"
 Parameters:    Size  Location     Type
		None
 Auto vars:     Size  Location     Type
		None
 Return value:  Size  Location     Type
                  1    wreg      enum E8364
 Registers used:
		wreg, status,2
 Tracked objects:
		On entry : 
		On exit  : 
		Unchanged: 
 Data sizes:     COMMON   BANK0   BANK1   BANK2   BANK3   BANK4   BANK5   BANK6   BANK7   BANK8   BANK9  BANK10  BANK11  BANK12  BANK13  BANK14  BANK15  BANK16  BANK17  BANK18  BANK19  BANK20  BANK21  BANK22  BANK23  BANK24  BANK25
      Params:         0       0       0       0       0       0       0       0       0       0       0       0       0       0       0       0       0       0       0       0       0       0       0       0       0       0       0
      Locals:         0       0       0       0       0       0       0       0       0       0       0       0       0       0       0       0       0       0       0       0       0       0       0       0       0       0       0
      Temps:          0       0       0       0       0       0       0       0       0       0       0       0       0       0       0       0       0       0       0       0       0       0       0       0       0       0       0
      Totals:         0       0       0       0       0       0       0       0       0       0       0       0       0       0       0       0       0       0       0       0       0       0       0       0       0       0       0
Total ram usage:        0 bytes
 Hardware stack levels used:    1
 This function calls:
		Nothing
 This function is called by:
 This function uses a non-reentrant model


 *************** function i1_do_I2C_RESET *****************
 Defined at:
		line 239 in file "mcc_generated_files/drivers/i2c_master.c"
 Parameters:    Size  Location     Type
		None
 Auto vars:     Size  Location     Type
		None
 Return value:  Size  Location     Type
                  1    wreg      enum E8364
 Registers used:
		wreg, status,2, status,0, pclath, cstack
 Tracked objects:
		On entry : 
		On exit  : 
		Unchanged: 
 Data sizes:     COMMON   BANK0   BANK1   BANK2   BANK3   BANK4   BANK5   BANK6   BANK7   BANK8   BANK9  BANK10  BANK11  BANK12  BANK13  BANK14  BANK15  BANK16  BANK17  BANK18  BANK19  BANK20  BANK21  BANK22  BANK23  BANK24  BANK25
      Params:         0       0       0       0       0       0       0       0       0       0       0       0       0       0       0       0       0       0       0       0       0       0       0       0       0       0       0
      Locals:         0       0       0       0       0       0       0       0       0       0       0       0       0       0       0       0       0       0       0       0       0       0       0       0       0       0       0
      Temps:          0       0       0       0       0       0       0       0       0       0       0       0       0       0       0       0       0       0       0       0       0       0       0       0       0       0       0
      Totals:         0       0       0       0       0       0       0       0       0       0       0       0       0       0       0       0       0       0       0       0       0       0       0       0       0       0       0
Total ram usage:        0 bytes
 Hardware stack levels used:    1
 Hardware stack levels required when called:    1
 This function calls:
		i1_i2c1_driver_resetBus
 This function is called by:
 This function uses a non-reentrant model


 *************** function i1_do_I2C_TX_EMPTY *****************
 Defined at:
		line 382 in file "mcc_generated_files/drivers/i2c_master.c"
 Parameters:    Size  Location     Type
		None
 Auto vars:     Size  Location     Type
		None
 Return value:  Size  Location     Type
                  1    wreg      enum E8364
 Registers used:
		wreg, fsr0l, fsr0h, fsr1l, fsr1h, status,2, status,0, pclath, cstack
 Tracked objects:
		On entry : 
		On exit  : 
		Unchanged: 
 Data sizes:     COMMON   BANK0   BANK1   BANK2   BANK3   BANK4   BANK5   BANK6   BANK7   BANK8   BANK9  BANK10  BANK11  BANK12  BANK13  BANK14  BANK15  BANK16  BANK17  BANK18  BANK19  BANK20  BANK21  BANK22  BANK23  BANK24  BANK25
      Params:         0       0       0       0       0       0       0       0       0       0       0       0       0       0       0       0       0       0       0       0       0       0       0       0       0       0       0
      Locals:         0       0       0       0       0       0       0       0       0       0       0       0       0       0       0       0       0       0       0       0       0       0       0       0       0       0       0
      Temps:          1       0       0       0       0       0       0       0       0       0       0       0       0       0       0       0       0       0       0       0       0       0       0       0       0       0       0
      Totals:         1       0       0       0       0       0       0       0       0       0       0       0       0       0       0       0       0       0       0       0       0       0       0       0       0       0       0
Total ram usage:        1 bytes
 Hardware stack levels used:    1
 Hardware stack levels required when called:    2
 This function calls:
		i1_do_I2C_SEND_RESTART
		i1_do_I2C_SEND_STOP
		i1_mssp1_setIRQ
		i1_returnReset
		i1_returnStop
 This function is called by:
 This function uses a non-reentrant model


 *************** function i1_mssp1_setIRQ *****************
 Defined at:
		line 58 in file "mcc_generated_files/i2c1_driver.c"
 Parameters:    Size  Location     Type
		None
 Auto vars:     Size  Location     Type
		None
 Return value:  Size  Location     Type
                  1    wreg      void 
 Registers used:
		None
 Tracked objects:
		On entry : 
		On exit  : 
		Unchanged: 
 Data sizes:     COMMON   BANK0   BANK1   BANK2   BANK3   BANK4   BANK5   BANK6   BANK7   BANK8   BANK9  BANK10  BANK11  BANK12  BANK13  BANK14  BANK15  BANK16  BANK17  BANK18  BANK19  BANK20  BANK21  BANK22  BANK23  BANK24  BANK25
      Params:         0       0       0       0       0       0       0       0       0       0       0       0       0       0       0       0       0       0       0       0       0       0       0       0       0       0       0
      Locals:         0       0       0       0       0       0       0       0       0       0       0       0       0       0       0       0       0       0       0       0       0       0       0       0       0       0       0
      Temps:          0       0       0       0       0       0       0       0       0       0       0       0       0       0       0       0       0       0       0       0       0       0       0       0       0       0       0
      Totals:         0       0       0       0       0       0       0       0       0       0       0       0       0       0       0       0       0       0       0       0       0       0       0       0       0       0       0
Total ram usage:        0 bytes
 Hardware stack levels used:    1
 This function calls:
		Nothing
 This function is called by:
		i1_do_I2C_TX_EMPTY
 This function uses a non-reentrant model


 *************** function i1_i2c1_driver_isNACK *****************
 Defined at:
		line 161 in file "mcc_generated_files/i2c1_driver.c"
 Parameters:    Size  Location     Type
		None
 Auto vars:     Size  Location     Type
		None
 Return value:  Size  Location     Type
		None               void
 Registers used:
		wreg, status,2, status,0
 Tracked objects:
		On entry : 
		On exit  : 
		Unchanged: 
 Data sizes:     COMMON   BANK0   BANK1   BANK2   BANK3   BANK4   BANK5   BANK6   BANK7   BANK8   BANK9  BANK10  BANK11  BANK12  BANK13  BANK14  BANK15  BANK16  BANK17  BANK18  BANK19  BANK20  BANK21  BANK22  BANK23  BANK24  BANK25
      Params:         0       0       0       0       0       0       0       0       0       0       0       0       0       0       0       0       0       0       0       0       0       0       0       0       0       0       0
      Locals:         0       0       0       0       0       0       0       0       0       0       0       0       0       0       0       0       0       0       0       0       0       0       0       0       0       0       0
      Temps:          1       0       0       0       0       0       0       0       0       0       0       0       0       0       0       0       0       0       0       0       0       0       0       0       0       0       0
      Totals:         1       0       0       0       0       0       0       0       0       0       0       0       0       0       0       0       0       0       0       0       0       0       0       0       0       0       0
Total ram usage:        1 bytes
 Hardware stack levels used:    1
 This function calls:
		Nothing
 This function is called by:
		i1_do_I2C_TX
		i1_i2c_ISR
 This function uses a non-reentrant model


 *************** function i1_i2c1_driver_TXData *****************
 Defined at:
		line 186 in file "mcc_generated_files/i2c1_driver.c"
 Parameters:    Size  Location     Type
  d               1    wreg     unsigned char 
 Auto vars:     Size  Location     Type
  d               1    0[COMMON] unsigned char 
 Return value:  Size  Location     Type
                  1    wreg      void 
 Registers used:
		wreg
 Tracked objects:
		On entry : 
		On exit  : 
		Unchanged: 
 Data sizes:     COMMON   BANK0   BANK1   BANK2   BANK3   BANK4   BANK5   BANK6   BANK7   BANK8   BANK9  BANK10  BANK11  BANK12  BANK13  BANK14  BANK15  BANK16  BANK17  BANK18  BANK19  BANK20  BANK21  BANK22  BANK23  BANK24  BANK25
      Params:         0       0       0       0       0       0       0       0       0       0       0       0       0       0       0       0       0       0       0       0       0       0       0       0       0       0       0
      Locals:         1       0       0       0       0       0       0       0       0       0       0       0       0       0       0       0       0       0       0       0       0       0       0       0       0       0       0
      Temps:          0       0       0       0       0       0       0       0       0       0       0       0       0       0       0       0       0       0       0       0       0       0       0       0       0       0       0
      Totals:         1       0       0       0       0       0       0       0       0       0       0       0       0       0       0       0       0       0       0       0       0       0       0       0       0       0       0
Total ram usage:        1 bytes
 Hardware stack levels used:    1
 This function calls:
		Nothing
 This function is called by:
		i1_do_I2C_SEND_ADR_READ
		i1_do_I2C_SEND_ADR_WRITE
		i1_do_I2C_TX
 This function uses a non-reentrant model


 *************** function i1_i2c1_driver_getRXData *****************
 Defined at:
		line 171 in file "mcc_generated_files/i2c1_driver.c"
 Parameters:    Size  Location     Type
		None
 Auto vars:     Size  Location     Type
		None
 Return value:  Size  Location     Type
                  1    wreg      unsigned char 
 Registers used:
		wreg
 Tracked objects:
		On entry : 
		On exit  : 
		Unchanged: 
 Data sizes:     COMMON   BANK0   BANK1   BANK2   BANK3   BANK4   BANK5   BANK6   BANK7   BANK8   BANK9  BANK10  BANK11  BANK12  BANK13  BANK14  BANK15  BANK16  BANK17  BANK18  BANK19  BANK20  BANK21  BANK22  BANK23  BANK24  BANK25
      Params:         0       0       0       0       0       0       0       0       0       0       0       0       0       0       0       0       0       0       0       0       0       0       0       0       0       0       0
      Locals:         0       0       0       0       0       0       0       0       0       0       0       0       0       0       0       0       0       0       0       0       0       0       0       0       0       0       0
      Temps:          0       0       0       0       0       0       0       0       0       0       0       0       0       0       0       0       0       0       0       0       0       0       0       0       0       0       0
      Totals:         0       0       0       0       0       0       0       0       0       0       0       0       0       0       0       0       0       0       0       0       0       0       0       0       0       0       0
Total ram usage:        0 bytes
 Hardware stack levels used:    1
 This function calls:
		Nothing
 This function is called by:
		i1_do_I2C_RX
 This function uses a non-reentrant model


 *************** function i1_i2c1_driver_sendNACK *****************
 Defined at:
		line 202 in file "mcc_generated_files/i2c1_driver.c"
 Parameters:    Size  Location     Type
		None
 Auto vars:     Size  Location     Type
		None
 Return value:  Size  Location     Type
                  1    wreg      void 
 Registers used:
		None
 Tracked objects:
		On entry : 
		On exit  : 
		Unchanged: 
 Data sizes:     COMMON   BANK0   BANK1   BANK2   BANK3   BANK4   BANK5   BANK6   BANK7   BANK8   BANK9  BANK10  BANK11  BANK12  BANK13  BANK14  BANK15  BANK16  BANK17  BANK18  BANK19  BANK20  BANK21  BANK22  BANK23  BANK24  BANK25
      Params:         0       0       0       0       0       0       0       0       0       0       0       0       0       0       0       0       0       0       0       0       0       0       0       0       0       0       0
      Locals:         0       0       0       0       0       0       0       0       0       0       0       0       0       0       0       0       0       0       0       0       0       0       0       0       0       0       0
      Temps:          0       0       0       0       0       0       0       0       0       0       0       0       0       0       0       0       0       0       0       0       0       0       0       0       0       0       0
      Totals:         0       0       0       0       0       0       0       0       0       0       0       0       0       0       0       0       0       0       0       0       0       0       0       0       0       0       0
Total ram usage:        0 bytes
 Hardware stack levels used:    1
 This function calls:
		Nothing
 This function is called by:
		i1_do_I2C_DO_NACK_STOP
		i1_do_I2C_DO_NACK_RESTART
 This function uses a non-reentrant model


 *************** function i1_i2c1_driver_resetBus *****************
 Defined at:
		line 141 in file "mcc_generated_files/i2c1_driver.c"
 Parameters:    Size  Location     Type
		None
 Auto vars:     Size  Location     Type
		None
 Return value:  Size  Location     Type
                  1    wreg      void 
 Registers used:
		None
 Tracked objects:
		On entry : 
		On exit  : 
		Unchanged: 
 Data sizes:     COMMON   BANK0   BANK1   BANK2   BANK3   BANK4   BANK5   BANK6   BANK7   BANK8   BANK9  BANK10  BANK11  BANK12  BANK13  BANK14  BANK15  BANK16  BANK17  BANK18  BANK19  BANK20  BANK21  BANK22  BANK23  BANK24  BANK25
      Params:         0       0       0       0       0       0       0       0       0       0       0       0       0       0       0       0       0       0       0       0       0       0       0       0       0       0       0
      Locals:         0       0       0       0       0       0       0       0       0       0       0       0       0       0       0       0       0       0       0       0       0       0       0       0       0       0       0
      Temps:          0       0       0       0       0       0       0       0       0       0       0       0       0       0       0       0       0       0       0       0       0       0       0       0       0       0       0
      Totals:         0       0       0       0       0       0       0       0       0       0       0       0       0       0       0       0       0       0       0       0       0       0       0       0       0       0       0
Total ram usage:        0 bytes
 Hardware stack levels used:    1
 This function calls:
		Nothing
 This function is called by:
		i1_do_I2C_RESET
 This function uses a non-reentrant model


 *************** function i1_i2c1_driver_startRX *****************
 Defined at:
		line 166 in file "mcc_generated_files/i2c1_driver.c"
 Parameters:    Size  Location     Type
		None
 Auto vars:     Size  Location     Type
		None
 Return value:  Size  Location     Type
                  1    wreg      void 
 Registers used:
		None
 Tracked objects:
		On entry : 
		On exit  : 
		Unchanged: 
 Data sizes:     COMMON   BANK0   BANK1   BANK2   BANK3   BANK4   BANK5   BANK6   BANK7   BANK8   BANK9  BANK10  BANK11  BANK12  BANK13  BANK14  BANK15  BANK16  BANK17  BANK18  BANK19  BANK20  BANK21  BANK22  BANK23  BANK24  BANK25
      Params:         0       0       0       0       0       0       0       0       0       0       0       0       0       0       0       0       0       0       0       0       0       0       0       0       0       0       0
      Locals:         0       0       0       0       0       0       0       0       0       0       0       0       0       0       0       0       0       0       0       0       0       0       0       0       0       0       0
      Temps:          0       0       0       0       0       0       0       0       0       0       0       0       0       0       0       0       0       0       0       0       0       0       0       0       0       0       0
      Totals:         0       0       0       0       0       0       0       0       0       0       0       0       0       0       0       0       0       0       0       0       0       0       0       0       0       0       0
Total ram usage:        0 bytes
 Hardware stack levels used:    1
 This function calls:
		Nothing
 This function is called by:
		i1_do_I2C_RCEN
 This function uses a non-reentrant model


 *************** function i1_returnReset *****************
 Defined at:
		line 448 in file "mcc_generated_files/drivers/i2c_master.c"
 Parameters:    Size  Location     Type
  p               1    0[COMMON] PTR void 
		 -> NULL(0), 
 Auto vars:     Size  Location     Type
		None
 Return value:  Size  Location     Type
                  1    wreg      enum E8198
 Registers used:
		wreg
 Tracked objects:
		On entry : 
		On exit  : 
		Unchanged: 
 Data sizes:     COMMON   BANK0   BANK1   BANK2   BANK3   BANK4   BANK5   BANK6   BANK7   BANK8   BANK9  BANK10  BANK11  BANK12  BANK13  BANK14  BANK15  BANK16  BANK17  BANK18  BANK19  BANK20  BANK21  BANK22  BANK23  BANK24  BANK25
      Params:         1       0       0       0       0       0       0       0       0       0       0       0       0       0       0       0       0       0       0       0       0       0       0       0       0       0       0
      Locals:         0       0       0       0       0       0       0       0       0       0       0       0       0       0       0       0       0       0       0       0       0       0       0       0       0       0       0
      Temps:          0       0       0       0       0       0       0       0       0       0       0       0       0       0       0       0       0       0       0       0       0       0       0       0       0       0       0
      Totals:         1       0       0       0       0       0       0       0       0       0       0       0       0       0       0       0       0       0       0       0       0       0       0       0       0       0       0
Total ram usage:        1 bytes
 Hardware stack levels used:    1
 This function calls:
		Nothing
 This function is called by:
 This function uses a non-reentrant model


 *************** function i1_returnStop *****************
 Defined at:
		line 443 in file "mcc_generated_files/drivers/i2c_master.c"
 Parameters:    Size  Location     Type
  p               1    0[COMMON] PTR void 
		 -> NULL(0), 
 Auto vars:     Size  Location     Type
		None
 Return value:  Size  Location     Type
                  1    wreg      enum E8198
 Registers used:
		wreg
 Tracked objects:
		On entry : 
		On exit  : 
		Unchanged: 
 Data sizes:     COMMON   BANK0   BANK1   BANK2   BANK3   BANK4   BANK5   BANK6   BANK7   BANK8   BANK9  BANK10  BANK11  BANK12  BANK13  BANK14  BANK15  BANK16  BANK17  BANK18  BANK19  BANK20  BANK21  BANK22  BANK23  BANK24  BANK25
      Params:         1       0       0       0       0       0       0       0       0       0       0       0       0       0       0       0       0       0       0       0       0       0       0       0       0       0       0
      Locals:         0       0       0       0       0       0       0       0       0       0       0       0       0       0       0       0       0       0       0       0       0       0       0       0       0       0       0
      Temps:          0       0       0       0       0       0       0       0       0       0       0       0       0       0       0       0       0       0       0       0       0       0       0       0       0       0       0
      Totals:         1       0       0       0       0       0       0       0       0       0       0       0       0       0       0       0       0       0       0       0       0       0       0       0       0       0       0
Total ram usage:        1 bytes
 Hardware stack levels used:    1
 This function calls:
		Nothing
 This function is called by:
 This function uses a non-reentrant model


 *************** function i1_i2c1_driver_stop *****************
 Defined at:
		line 156 in file "mcc_generated_files/i2c1_driver.c"
 Parameters:    Size  Location     Type
		None
 Auto vars:     Size  Location     Type
		None
 Return value:  Size  Location     Type
                  1    wreg      void 
 Registers used:
		None
 Tracked objects:
		On entry : 
		On exit  : 
		Unchanged: 
 Data sizes:     COMMON   BANK0   BANK1   BANK2   BANK3   BANK4   BANK5   BANK6   BANK7   BANK8   BANK9  BANK10  BANK11  BANK12  BANK13  BANK14  BANK15  BANK16  BANK17  BANK18  BANK19  BANK20  BANK21  BANK22  BANK23  BANK24  BANK25
      Params:         0       0       0       0       0       0       0       0       0       0       0       0       0       0       0       0       0       0       0       0       0       0       0       0       0       0       0
      Locals:         0       0       0       0       0       0       0       0       0       0       0       0       0       0       0       0       0       0       0       0       0       0       0       0       0       0       0
      Temps:          0       0       0       0       0       0       0       0       0       0       0       0       0       0       0       0       0       0       0       0       0       0       0       0       0       0       0
      Totals:         0       0       0       0       0       0       0       0       0       0       0       0       0       0       0       0       0       0       0       0       0       0       0       0       0       0       0
Total ram usage:        0 bytes
 Hardware stack levels used:    1
 This function calls:
		Nothing
 This function is called by:
		i1_do_I2C_SEND_STOP
 This function uses a non-reentrant model


 *************** function i1_i2c1_driver_restart *****************
 Defined at:
		line 151 in file "mcc_generated_files/i2c1_driver.c"
 Parameters:    Size  Location     Type
		None
 Auto vars:     Size  Location     Type
		None
 Return value:  Size  Location     Type
                  1    wreg      void 
 Registers used:
		None
 Tracked objects:
		On entry : 
		On exit  : 
		Unchanged: 
 Data sizes:     COMMON   BANK0   BANK1   BANK2   BANK3   BANK4   BANK5   BANK6   BANK7   BANK8   BANK9  BANK10  BANK11  BANK12  BANK13  BANK14  BANK15  BANK16  BANK17  BANK18  BANK19  BANK20  BANK21  BANK22  BANK23  BANK24  BANK25
      Params:         0       0       0       0       0       0       0       0       0       0       0       0       0       0       0       0       0       0       0       0       0       0       0       0       0       0       0
      Locals:         0       0       0       0       0       0       0       0       0       0       0       0       0       0       0       0       0       0       0       0       0       0       0       0       0       0       0
      Temps:          0       0       0       0       0       0       0       0       0       0       0       0       0       0       0       0       0       0       0       0       0       0       0       0       0       0       0
      Totals:         0       0       0       0       0       0       0       0       0       0       0       0       0       0       0       0       0       0       0       0       0       0       0       0       0       0       0
Total ram usage:        0 bytes
 Hardware stack levels used:    1
 This function calls:
		Nothing
 This function is called by:
		i1_do_I2C_SEND_RESTART_READ
		i1_do_I2C_SEND_RESTART_WRITE
		i1_do_I2C_SEND_RESTART
 This function uses a non-reentrant model


 *************** function i1_i2c1_driver_sendACK *****************
 Defined at:
		line 196 in file "mcc_generated_files/i2c1_driver.c"
 Parameters:    Size  Location     Type
		None
 Auto vars:     Size  Location     Type
		None
 Return value:  Size  Location     Type
                  1    wreg      void 
 Registers used:
		None
 Tracked objects:
		On entry : 
		On exit  : 
		Unchanged: 
 Data sizes:     COMMON   BANK0   BANK1   BANK2   BANK3   BANK4   BANK5   BANK6   BANK7   BANK8   BANK9  BANK10  BANK11  BANK12  BANK13  BANK14  BANK15  BANK16  BANK17  BANK18  BANK19  BANK20  BANK21  BANK22  BANK23  BANK24  BANK25
      Params:         0       0       0       0       0       0       0       0       0       0       0       0       0       0       0       0       0       0       0       0       0       0       0       0       0       0       0
      Locals:         0       0       0       0       0       0       0       0       0       0       0       0       0       0       0       0       0       0       0       0       0       0       0       0       0       0       0
      Temps:          0       0       0       0       0       0       0       0       0       0       0       0       0       0       0       0       0       0       0       0       0       0       0       0       0       0       0
      Totals:         0       0       0       0       0       0       0       0       0       0       0       0       0       0       0       0       0       0       0       0       0       0       0       0       0       0       0
Total ram usage:        0 bytes
 Hardware stack levels used:    1
 This function calls:
		Nothing
 This function is called by:
		i1_do_I2C_DO_ACK
		i1_do_I2C_RX
 This function uses a non-reentrant model


 *************** function _i2c_busCollisionISR *****************
 Defined at:
		line 435 in file "mcc_generated_files/drivers/i2c_master.c"
 Parameters:    Size  Location     Type
		None
 Auto vars:     Size  Location     Type
		None
 Return value:  Size  Location     Type
                  1    wreg      void 
 Registers used:
		status,2, status,0, pclath, cstack
 Tracked objects:
		On entry : 
		On exit  : 
		Unchanged: 
 Data sizes:     COMMON   BANK0   BANK1   BANK2   BANK3   BANK4   BANK5   BANK6   BANK7   BANK8   BANK9  BANK10  BANK11  BANK12  BANK13  BANK14  BANK15  BANK16  BANK17  BANK18  BANK19  BANK20  BANK21  BANK22  BANK23  BANK24  BANK25
      Params:         0       0       0       0       0       0       0       0       0       0       0       0       0       0       0       0       0       0       0       0       0       0       0       0       0       0       0
      Locals:         0       0       0       0       0       0       0       0       0       0       0       0       0       0       0       0       0       0       0       0       0       0       0       0       0       0       0
      Temps:          0       0       0       0       0       0       0       0       0       0       0       0       0       0       0       0       0       0       0       0       0       0       0       0       0       0       0
      Totals:         0       0       0       0       0       0       0       0       0       0       0       0       0       0       0       0       0       0       0       0       0       0       0       0       0       0       0
Total ram usage:        0 bytes
 Hardware stack levels used:    1
 Hardware stack levels required when called:    1
 This function calls:
		_i2c1_driver_clearBusCollision
 This function is called by:
		_i2c_open
		_INTERRUPT_InterruptManager
 This function uses a non-reentrant model


 *************** function _i2c1_driver_clearBusCollision *****************
 Defined at:
		line 253 in file "mcc_generated_files/i2c1_driver.c"
 Parameters:    Size  Location     Type
		None
 Auto vars:     Size  Location     Type
		None
 Return value:  Size  Location     Type
                  1    wreg      void 
 Registers used:
		None
 Tracked objects:
		On entry : 
		On exit  : 
		Unchanged: 
 Data sizes:     COMMON   BANK0   BANK1   BANK2   BANK3   BANK4   BANK5   BANK6   BANK7   BANK8   BANK9  BANK10  BANK11  BANK12  BANK13  BANK14  BANK15  BANK16  BANK17  BANK18  BANK19  BANK20  BANK21  BANK22  BANK23  BANK24  BANK25
      Params:         0       0       0       0       0       0       0       0       0       0       0       0       0       0       0       0       0       0       0       0       0       0       0       0       0       0       0
      Locals:         0       0       0       0       0       0       0       0       0       0       0       0       0       0       0       0       0       0       0       0       0       0       0       0       0       0       0
      Temps:          0       0       0       0       0       0       0       0       0       0       0       0       0       0       0       0       0       0       0       0       0       0       0       0       0       0       0
      Totals:         0       0       0       0       0       0       0       0       0       0       0       0       0       0       0       0       0       0       0       0       0       0       0       0       0       0       0
Total ram usage:        0 bytes
 Hardware stack levels used:    1
 This function calls:
		Nothing
 This function is called by:
		_i2c_busCollisionISR
 This function uses a non-reentrant model


 *************** function _TMR2_ISR *****************
 Defined at:
		line 117 in file "mcc_generated_files/tmr2.c"
 Parameters:    Size  Location     Type
		None
 Auto vars:     Size  Location     Type
		None
 Return value:  Size  Location     Type
                  1    wreg      void 
 Registers used:
		wreg, status,2, status,0, pclath, cstack
 Tracked objects:
		On entry : 
		On exit  : 
		Unchanged: 
 Data sizes:     COMMON   BANK0   BANK1   BANK2   BANK3   BANK4   BANK5   BANK6   BANK7   BANK8   BANK9  BANK10  BANK11  BANK12  BANK13  BANK14  BANK15  BANK16  BANK17  BANK18  BANK19  BANK20  BANK21  BANK22  BANK23  BANK24  BANK25
      Params:         0       0       0       0       0       0       0       0       0       0       0       0       0       0       0       0       0       0       0       0       0       0       0       0       0       0       0
      Locals:         0       0       0       0       0       0       0       0       0       0       0       0       0       0       0       0       0       0       0       0       0       0       0       0       0       0       0
      Temps:          0       0       0       0       0       0       0       0       0       0       0       0       0       0       0       0       0       0       0       0       0       0       0       0       0       0       0
      Totals:         0       0       0       0       0       0       0       0       0       0       0       0       0       0       0       0       0       0       0       0       0       0       0       0       0       0       0
Total ram usage:        0 bytes
 Hardware stack levels used:    1
 Hardware stack levels required when called:    2
 This function calls:
		Absolute function
		_TMR2_DefaultInterruptHandler
 This function is called by:
		_INTERRUPT_InterruptManager
 This function uses a non-reentrant model


 *************** function _TMR2_DefaultInterruptHandler *****************
 Defined at:
		line 134 in file "mcc_generated_files/tmr2.c"
 Parameters:    Size  Location     Type
		None
 Auto vars:     Size  Location     Type
		None
 Return value:  Size  Location     Type
                  1    wreg      void 
 Registers used:
		wreg, status,2, status,0, pclath, cstack
 Tracked objects:
		On entry : 
		On exit  : 
		Unchanged: 
 Data sizes:     COMMON   BANK0   BANK1   BANK2   BANK3   BANK4   BANK5   BANK6   BANK7   BANK8   BANK9  BANK10  BANK11  BANK12  BANK13  BANK14  BANK15  BANK16  BANK17  BANK18  BANK19  BANK20  BANK21  BANK22  BANK23  BANK24  BANK25
      Params:         0       0       0       0       0       0       0       0       0       0       0       0       0       0       0       0       0       0       0       0       0       0       0       0       0       0       0
      Locals:         0       0       0       0       0       0       0       0       0       0       0       0       0       0       0       0       0       0       0       0       0       0       0       0       0       0       0
      Temps:          0       0       0       0       0       0       0       0       0       0       0       0       0       0       0       0       0       0       0       0       0       0       0       0       0       0       0
      Totals:         0       0       0       0       0       0       0       0       0       0       0       0       0       0       0       0       0       0       0       0       0       0       0       0       0       0       0
Total ram usage:        0 bytes
 Hardware stack levels used:    1
 Hardware stack levels required when called:    1
 This function calls:
		_TMR2_StopTimer
		_TMR2_WriteTimer
 This function is called by:
		_TMR2_Initialize
		_TMR2_ISR
 This function uses a non-reentrant model


 *************** function _TMR2_WriteTimer *****************
 Defined at:
		line 106 in file "mcc_generated_files/tmr2.c"
 Parameters:    Size  Location     Type
  timerVal        1    wreg     unsigned char 
 Auto vars:     Size  Location     Type
  timerVal        1    0[COMMON] unsigned char 
 Return value:  Size  Location     Type
                  1    wreg      void 
 Registers used:
		wreg
 Tracked objects:
		On entry : 
		On exit  : 
		Unchanged: 
 Data sizes:     COMMON   BANK0   BANK1   BANK2   BANK3   BANK4   BANK5   BANK6   BANK7   BANK8   BANK9  BANK10  BANK11  BANK12  BANK13  BANK14  BANK15  BANK16  BANK17  BANK18  BANK19  BANK20  BANK21  BANK22  BANK23  BANK24  BANK25
      Params:         0       0       0       0       0       0       0       0       0       0       0       0       0       0       0       0       0       0       0       0       0       0       0       0       0       0       0
      Locals:         1       0       0       0       0       0       0       0       0       0       0       0       0       0       0       0       0       0       0       0       0       0       0       0       0       0       0
      Temps:          0       0       0       0       0       0       0       0       0       0       0       0       0       0       0       0       0       0       0       0       0       0       0       0       0       0       0
      Totals:         1       0       0       0       0       0       0       0       0       0       0       0       0       0       0       0       0       0       0       0       0       0       0       0       0       0       0
Total ram usage:        1 bytes
 Hardware stack levels used:    1
 This function calls:
		Nothing
 This function is called by:
		_TMR2_DefaultInterruptHandler
 This function uses a non-reentrant model


 *************** function _TMR2_StopTimer *****************
 Defined at:
		line 91 in file "mcc_generated_files/tmr2.c"
 Parameters:    Size  Location     Type
		None
 Auto vars:     Size  Location     Type
		None
 Return value:  Size  Location     Type
                  1    wreg      void 
 Registers used:
		None
 Tracked objects:
		On entry : 
		On exit  : 
		Unchanged: 
 Data sizes:     COMMON   BANK0   BANK1   BANK2   BANK3   BANK4   BANK5   BANK6   BANK7   BANK8   BANK9  BANK10  BANK11  BANK12  BANK13  BANK14  BANK15  BANK16  BANK17  BANK18  BANK19  BANK20  BANK21  BANK22  BANK23  BANK24  BANK25
      Params:         0       0       0       0       0       0       0       0       0       0       0       0       0       0       0       0       0       0       0       0       0       0       0       0       0       0       0
      Locals:         0       0       0       0       0       0       0       0       0       0       0       0       0       0       0       0       0       0       0       0       0       0       0       0       0       0       0
      Temps:          0       0       0       0       0       0       0       0       0       0       0       0       0       0       0       0       0       0       0       0       0       0       0       0       0       0       0
      Totals:         0       0       0       0       0       0       0       0       0       0       0       0       0       0       0       0       0       0       0       0       0       0       0       0       0       0       0
Total ram usage:        0 bytes
 Hardware stack levels used:    1
 This function calls:
		Nothing
 This function is called by:
		_TMR2_DefaultInterruptHandler
 This function uses a non-reentrant model


 *************** function _TMR0_ISR *****************
 Defined at:
		line 119 in file "mcc_generated_files/tmr0.c"
 Parameters:    Size  Location     Type
		None
 Auto vars:     Size  Location     Type
		None
 Return value:  Size  Location     Type
                  1    wreg      void 
 Registers used:
		wreg, status,2, status,0, pclath, cstack
 Tracked objects:
		On entry : 
		On exit  : 
		Unchanged: 
 Data sizes:     COMMON   BANK0   BANK1   BANK2   BANK3   BANK4   BANK5   BANK6   BANK7   BANK8   BANK9  BANK10  BANK11  BANK12  BANK13  BANK14  BANK15  BANK16  BANK17  BANK18  BANK19  BANK20  BANK21  BANK22  BANK23  BANK24  BANK25
      Params:         0       0       0       0       0       0       0       0       0       0       0       0       0       0       0       0       0       0       0       0       0       0       0       0       0       0       0
      Locals:         0       0       0       0       0       0       0       0       0       0       0       0       0       0       0       0       0       0       0       0       0       0       0       0       0       0       0
      Temps:          0       0       0       0       0       0       0       0       0       0       0       0       0       0       0       0       0       0       0       0       0       0       0       0       0       0       0
      Totals:         0       0       0       0       0       0       0       0       0       0       0       0       0       0       0       0       0       0       0       0       0       0       0       0       0       0       0
Total ram usage:        0 bytes
 Hardware stack levels used:    1
 Hardware stack levels required when called:    4
 This function calls:
		Absolute function
		_TMR0_DefaultInterruptHandler
 This function is called by:
		_INTERRUPT_InterruptManager
 This function uses a non-reentrant model


 *************** function _TMR0_DefaultInterruptHandler *****************
 Defined at:
		line 136 in file "mcc_generated_files/tmr0.c"
 Parameters:    Size  Location     Type
		None
 Auto vars:     Size  Location     Type
		None
 Return value:  Size  Location     Type
                  1    wreg      void 
 Registers used:
		wreg, status,2, status,0, pclath, cstack
 Tracked objects:
		On entry : 
		On exit  : 
		Unchanged: 
 Data sizes:     COMMON   BANK0   BANK1   BANK2   BANK3   BANK4   BANK5   BANK6   BANK7   BANK8   BANK9  BANK10  BANK11  BANK12  BANK13  BANK14  BANK15  BANK16  BANK17  BANK18  BANK19  BANK20  BANK21  BANK22  BANK23  BANK24  BANK25
      Params:         0       0       0       0       0       0       0       0       0       0       0       0       0       0       0       0       0       0       0       0       0       0       0       0       0       0       0
      Locals:         0       0       0       0       0       0       0       0       0       0       0       0       0       0       0       0       0       0       0       0       0       0       0       0       0       0       0
      Temps:          0       0       0       0       0       0       0       0       0       0       0       0       0       0       0       0       0       0       0       0       0       0       0       0       0       0       0
      Totals:         0       0       0       0       0       0       0       0       0       0       0       0       0       0       0       0       0       0       0       0       0       0       0       0       0       0       0
Total ram usage:        0 bytes
 Hardware stack levels used:    1
 Hardware stack levels required when called:    3
 This function calls:
		_TMR0_StopTimer
		_TMR0_Write8bitTimer
		i1_LEDsOn
 This function is called by:
		_TMR0_Initialize
		_TMR0_ISR
 This function uses a non-reentrant model


 *************** function i1_LEDsOn *****************
 Defined at:
		line 6 in file "LEDcomm.c"
 Parameters:    Size  Location     Type
  LEDpins         4    7[BANK0 ] unsigned long 
  topOrBottom     2   11[BANK0 ] int 
 Auto vars:     Size  Location     Type
		None
 Return value:  Size  Location     Type
                  1    wreg      void 
 Registers used:
		wreg, status,2, status,0, pclath, cstack
 Tracked objects:
		On entry : 
		On exit  : 
		Unchanged: 
 Data sizes:     COMMON   BANK0   BANK1   BANK2   BANK3   BANK4   BANK5   BANK6   BANK7   BANK8   BANK9  BANK10  BANK11  BANK12  BANK13  BANK14  BANK15  BANK16  BANK17  BANK18  BANK19  BANK20  BANK21  BANK22  BANK23  BANK24  BANK25
      Params:         0       6       0       0       0       0       0       0       0       0       0       0       0       0       0       0       0       0       0       0       0       0       0       0       0       0       0
      Locals:         0       0       0       0       0       0       0       0       0       0       0       0       0       0       0       0       0       0       0       0       0       0       0       0       0       0       0
      Temps:          0       4       0       0       0       0       0       0       0       0       0       0       0       0       0       0       0       0       0       0       0       0       0       0       0       0       0
      Totals:         0      10       0       0       0       0       0       0       0       0       0       0       0       0       0       0       0       0       0       0       0       0       0       0       0       0       0
Total ram usage:       10 bytes
 Hardware stack levels used:    1
 Hardware stack levels required when called:    2
 This function calls:
		i1_send_2length_2bytes_IK
 This function is called by:
		_TMR0_DefaultInterruptHandler
 This function uses a non-reentrant model


 *************** function i1_send_2length_2bytes_IK *****************
 Defined at:
		line 70 in file "LEDcomm.c"
 Parameters:    Size  Location     Type
  data1           2    0[BANK0 ] unsigned int 
  data2           2    2[BANK0 ] unsigned int 
  latch_start     1    4[BANK0 ] unsigned char 
  topOrBottom     2    5[BANK0 ] int 
 Auto vars:     Size  Location     Type
		None
 Return value:  Size  Location     Type
                  1    wreg      void 
 Registers used:
		wreg, status,2, status,0, pclath, cstack
 Tracked objects:
		On entry : 
		On exit  : 
		Unchanged: 
 Data sizes:     COMMON   BANK0   BANK1   BANK2   BANK3   BANK4   BANK5   BANK6   BANK7   BANK8   BANK9  BANK10  BANK11  BANK12  BANK13  BANK14  BANK15  BANK16  BANK17  BANK18  BANK19  BANK20  BANK21  BANK22  BANK23  BANK24  BANK25
      Params:         0       7       0       0       0       0       0       0       0       0       0       0       0       0       0       0       0       0       0       0       0       0       0       0       0       0       0
      Locals:         0       0       0       0       0       0       0       0       0       0       0       0       0       0       0       0       0       0       0       0       0       0       0       0       0       0       0
      Temps:          1       0       0       0       0       0       0       0       0       0       0       0       0       0       0       0       0       0       0       0       0       0       0       0       0       0       0
      Totals:         1       7       0       0       0       0       0       0       0       0       0       0       0       0       0       0       0       0       0       0       0       0       0       0       0       0       0
Total ram usage:        8 bytes
 Hardware stack levels used:    1
 Hardware stack levels required when called:    1
 This function calls:
		i1_send_2bytes_latchless_IK
		i1_send_last_2bytes_IK
 This function is called by:
		i1_LEDsOn
 This function uses a non-reentrant model


 *************** function i1_send_last_2bytes_IK *****************
 Defined at:
		line 19 in file "LEDcomm.c"
 Parameters:    Size  Location     Type
  data            2    0[COMMON] unsigned int 
  latch_start     1    2[COMMON] unsigned char 
  topOrBottom     2    3[COMMON] int 
 Auto vars:     Size  Location     Type
  send_last_2b    2    9[COMMON] int 
 Return value:  Size  Location     Type
                  1    wreg      void 
 Registers used:
		wreg, status,2, status,0
 Tracked objects:
		On entry : 
		On exit  : 
		Unchanged: 
 Data sizes:     COMMON   BANK0   BANK1   BANK2   BANK3   BANK4   BANK5   BANK6   BANK7   BANK8   BANK9  BANK10  BANK11  BANK12  BANK13  BANK14  BANK15  BANK16  BANK17  BANK18  BANK19  BANK20  BANK21  BANK22  BANK23  BANK24  BANK25
      Params:         5       0       0       0       0       0       0       0       0       0       0       0       0       0       0       0       0       0       0       0       0       0       0       0       0       0       0
      Locals:         2       0       0       0       0       0       0       0       0       0       0       0       0       0       0       0       0       0       0       0       0       0       0       0       0       0       0
      Temps:          4       0       0       0       0       0       0       0       0       0       0       0       0       0       0       0       0       0       0       0       0       0       0       0       0       0       0
      Totals:        11       0       0       0       0       0       0       0       0       0       0       0       0       0       0       0       0       0       0       0       0       0       0       0       0       0       0
Total ram usage:       11 bytes
 Hardware stack levels used:    1
 This function calls:
		Nothing
 This function is called by:
		i1_send_2length_2bytes_IK
 This function uses a non-reentrant model


 *************** function i1_send_2bytes_latchless_IK *****************
 Defined at:
		line 49 in file "LEDcomm.c"
 Parameters:    Size  Location     Type
  data            2    0[COMMON] unsigned int 
 Auto vars:     Size  Location     Type
  send_2bytes_    2    6[COMMON] int 
 Return value:  Size  Location     Type
                  1    wreg      void 
 Registers used:
		wreg, status,2, status,0
 Tracked objects:
		On entry : 
		On exit  : 
		Unchanged: 
 Data sizes:     COMMON   BANK0   BANK1   BANK2   BANK3   BANK4   BANK5   BANK6   BANK7   BANK8   BANK9  BANK10  BANK11  BANK12  BANK13  BANK14  BANK15  BANK16  BANK17  BANK18  BANK19  BANK20  BANK21  BANK22  BANK23  BANK24  BANK25
      Params:         2       0       0       0       0       0       0       0       0       0       0       0       0       0       0       0       0       0       0       0       0       0       0       0       0       0       0
      Locals:         2       0       0       0       0       0       0       0       0       0       0       0       0       0       0       0       0       0       0       0       0       0       0       0       0       0       0
      Temps:          4       0       0       0       0       0       0       0       0       0       0       0       0       0       0       0       0       0       0       0       0       0       0       0       0       0       0
      Totals:         8       0       0       0       0       0       0       0       0       0       0       0       0       0       0       0       0       0       0       0       0       0       0       0       0       0       0
Total ram usage:        8 bytes
 Hardware stack levels used:    1
 This function calls:
		Nothing
 This function is called by:
		i1_send_2length_2bytes_IK
 This function uses a non-reentrant model


 *************** function _TMR0_Write8bitTimer *****************
 Defined at:
		line 107 in file "mcc_generated_files/tmr0.c"
 Parameters:    Size  Location     Type
  timerVal        1    wreg     unsigned char 
 Auto vars:     Size  Location     Type
  timerVal        1    0[COMMON] unsigned char 
 Return value:  Size  Location     Type
                  1    wreg      void 
 Registers used:
		wreg
 Tracked objects:
		On entry : 
		On exit  : 
		Unchanged: 
 Data sizes:     COMMON   BANK0   BANK1   BANK2   BANK3   BANK4   BANK5   BANK6   BANK7   BANK8   BANK9  BANK10  BANK11  BANK12  BANK13  BANK14  BANK15  BANK16  BANK17  BANK18  BANK19  BANK20  BANK21  BANK22  BANK23  BANK24  BANK25
      Params:         0       0       0       0       0       0       0       0       0       0       0       0       0       0       0       0       0       0       0       0       0       0       0       0       0       0       0
      Locals:         1       0       0       0       0       0       0       0       0       0       0       0       0       0       0       0       0       0       0       0       0       0       0       0       0       0       0
      Temps:          0       0       0       0       0       0       0       0       0       0       0       0       0       0       0       0       0       0       0       0       0       0       0       0       0       0       0
      Totals:         1       0       0       0       0       0       0       0       0       0       0       0       0       0       0       0       0       0       0       0       0       0       0       0       0       0       0
Total ram usage:        1 bytes
 Hardware stack levels used:    1
 This function calls:
		Nothing
 This function is called by:
		_TMR0_DefaultInterruptHandler
 This function uses a non-reentrant model


 *************** function _TMR0_StopTimer *****************
 Defined at:
		line 91 in file "mcc_generated_files/tmr0.c"
 Parameters:    Size  Location     Type
		None
 Auto vars:     Size  Location     Type
		None
 Return value:  Size  Location     Type
                  1    wreg      void 
 Registers used:
		None
 Tracked objects:
		On entry : 
		On exit  : 
		Unchanged: 
 Data sizes:     COMMON   BANK0   BANK1   BANK2   BANK3   BANK4   BANK5   BANK6   BANK7   BANK8   BANK9  BANK10  BANK11  BANK12  BANK13  BANK14  BANK15  BANK16  BANK17  BANK18  BANK19  BANK20  BANK21  BANK22  BANK23  BANK24  BANK25
      Params:         0       0       0       0       0       0       0       0       0       0       0       0       0       0       0       0       0       0       0       0       0       0       0       0       0       0       0
      Locals:         0       0       0       0       0       0       0       0       0       0       0       0       0       0       0       0       0       0       0       0       0       0       0       0       0       0       0
      Temps:          0       0       0       0       0       0       0       0       0       0       0       0       0       0       0       0       0       0       0       0       0       0       0       0       0       0       0
      Totals:         0       0       0       0       0       0       0       0       0       0       0       0       0       0       0       0       0       0       0       0       0       0       0       0       0       0       0
Total ram usage:        0 bytes
 Hardware stack levels used:    1
 This function calls:
		Nothing
 This function is called by:
		_TMR0_DefaultInterruptHandler
 This function uses a non-reentrant model


 *************** function _EUSART_Transmit_ISR *****************
 Defined at:
		line 161 in file "mcc_generated_files/eusart.c"
 Parameters:    Size  Location     Type
		None
 Auto vars:     Size  Location     Type
		None
 Return value:  Size  Location     Type
                  1    wreg      void 
 Registers used:
		wreg, fsr1l, fsr1h, status,2, status,0
 Tracked objects:
		On entry : 
		On exit  : 
		Unchanged: 
 Data sizes:     COMMON   BANK0   BANK1   BANK2   BANK3   BANK4   BANK5   BANK6   BANK7   BANK8   BANK9  BANK10  BANK11  BANK12  BANK13  BANK14  BANK15  BANK16  BANK17  BANK18  BANK19  BANK20  BANK21  BANK22  BANK23  BANK24  BANK25
      Params:         0       0       0       0       0       0       0       0       0       0       0       0       0       0       0       0       0       0       0       0       0       0       0       0       0       0       0
      Locals:         0       0       0       0       0       0       0       0       0       0       0       0       0       0       0       0       0       0       0       0       0       0       0       0       0       0       0
      Temps:          1       0       0       0       0       0       0       0       0       0       0       0       0       0       0       0       0       0       0       0       0       0       0       0       0       0       0
      Totals:         1       0       0       0       0       0       0       0       0       0       0       0       0       0       0       0       0       0       0       0       0       0       0       0       0       0       0
Total ram usage:        1 bytes
 Hardware stack levels used:    1
 This function calls:
		Nothing
 This function is called by:
		_INTERRUPT_InterruptManager
 This function uses a non-reentrant model


 *************** function _EUSART_Receive_ISR *****************
 Defined at:
		line 180 in file "mcc_generated_files/eusart.c"
 Parameters:    Size  Location     Type
		None
 Auto vars:     Size  Location     Type
		None
 Return value:  Size  Location     Type
                  1    wreg      void 
 Registers used:
		wreg, fsr1l, fsr1h, status,2, status,0
 Tracked objects:
		On entry : 
		On exit  : 
		Unchanged: 
 Data sizes:     COMMON   BANK0   BANK1   BANK2   BANK3   BANK4   BANK5   BANK6   BANK7   BANK8   BANK9  BANK10  BANK11  BANK12  BANK13  BANK14  BANK15  BANK16  BANK17  BANK18  BANK19  BANK20  BANK21  BANK22  BANK23  BANK24  BANK25
      Params:         0       0       0       0       0       0       0       0       0       0       0       0       0       0       0       0       0       0       0       0       0       0       0       0       0       0       0
      Locals:         0       0       0       0       0       0       0       0       0       0       0       0       0       0       0       0       0       0       0       0       0       0       0       0       0       0       0
      Temps:          1       0       0       0       0       0       0       0       0       0       0       0       0       0       0       0       0       0       0       0       0       0       0       0       0       0       0
      Totals:         1       0       0       0       0       0       0       0       0       0       0       0       0       0       0       0       0       0       0       0       0       0       0       0       0       0       0
Total ram usage:        1 bytes
 Hardware stack levels used:    1
 This function calls:
		Nothing
 This function is called by:
		_INTERRUPT_InterruptManager
 This function uses a non-reentrant model



MODULE INFORMATION

Module		Function		Class		Link	Load	Size
drv2665.c
		_drv_reset     		CODE           	23CA	0000	11
		_fifo_check    		CODE           	2473	0000	18
		_drv_write     		CODE           	2744	0000	37
		_drv_write_DC  		CODE           	1C94	0000	81
		_drv_read      		CODE           	1AD0	0000	72
		_drv_init      		CODE           	1F9D	0000	100

drv2665.c estimated size: 319

LEDcomm.c
		_send_last_2bytes_IK		CODE           	1DDB	0000	89
		_LED_setBrightnessRange		CODE           	0BF6	0000	223
		_LED_test_openshort		CODE           	14E0	0000	106
		_send_2bytes_latchless_IK		CODE           	1891	0000	49
		_LEDsPwr       		CODE           	1417	0000	101
		_LED_testComm  		CODE           	0838	0000	122
		_LEDsOn        		CODE           	2696	0000	34
		_send_2length_2bytes_IK		CODE           	24FF	0000	25
		_LED_getData   		CODE           	1E8C	0000	92
		_LED_readConfig		CODE           	2768	0000	37

LEDcomm.c estimated size: 878

C:\Program Files (x86)\Microchip\xc8\v1.45\sources\common\float.c
		___ftpack      		CODE           	147B	0000	102

C:\Program Files (x86)\Microchip\xc8\v1.45\sources\common\float.c estimated size: 102

C:\Program Files (x86)\Microchip\xc8\v1.45\sources\common\doprnt.c
		_printf        		CODE           	06A1	0000	307

C:\Program Files (x86)\Microchip\xc8\v1.45\sources\common\doprnt.c estimated size: 307

C:\Program Files (x86)\Microchip\xc8\v1.45\sources\common\strspn.c
		_strspn        		CODE           	18F1	0000	49

C:\Program Files (x86)\Microchip\xc8\v1.45\sources\common\strspn.c estimated size: 49

mcc_generated_files/tmr2.c
		_TMR2_ISR      		CODE           	2447	0000	14
		_TMR2_LoadPeriodRegister		CODE           	22EF	0000	6
		_TMR2_Initialize		CODE           	2484	0000	19
		_TMR2_SetInterruptHandler		CODE           	2388	0000	10
		_TMR2_StopTimer		CODE           	226C	0000	4
		_TMR2_DefaultInterruptHandler		CODE           	2376	0000	10
		_TMR2_WriteTimer		CODE           	22DB	0000	6
		_TMR2_StartTimer		CODE           	228A	0000	4

mcc_generated_files/tmr2.c estimated size: 73

mcc_generated_files/interrupt_manager.c
		_INTERRUPT_InterruptManager		CODE           	0004	0000	77

mcc_generated_files/interrupt_manager.c estimated size: 77

C:\Program Files (x86)\Microchip\xc8\v1.45\sources\common\Umul16.c
		___wmul        		CODE           	2582	0000	29

C:\Program Files (x86)\Microchip\xc8\v1.45\sources\common\Umul16.c estimated size: 29

mcc_generated_files/tmr0.c
		_TMR0_Load8bitPeriod		CODE           	22EA	0000	6
		_TMR0_SetInterruptHandler		CODE           	237F	0000	10
		_TMR0_StopTimer		CODE           	2269	0000	4
		_TMR0_Write8bitTimer		CODE           	22D6	0000	6
		_TMR0_DefaultInterruptHandler		CODE           	0801	0000	56
		_TMR0_StartTimer		CODE           	2287	0000	4
		_TMR0_ISR      		CODE           	243A	0000	14
		_TMR0_Initialize		CODE           	24A9	0000	21

mcc_generated_files/tmr0.c estimated size: 121

C:\Program Files (x86)\Microchip\xc8\v1.45\sources\common\strcspn.c
		_strcspn       		CODE           	18C1	0000	49

C:\Program Files (x86)\Microchip\xc8\v1.45\sources\common\strcspn.c estimated size: 49

mcc_generated_files/pin_manager.c
		_PIN_MANAGER_Initialize		CODE           	1921	0000	52

mcc_generated_files/pin_manager.c estimated size: 52

C:\Program Files (x86)\Microchip\xc8\v1.45\sources\common\isdigit.c
		_isdigit       		CODE           	2454	0000	16

C:\Program Files (x86)\Microchip\xc8\v1.45\sources\common\isdigit.c estimated size: 16

C:\Program Files (x86)\Microchip\xc8\v1.45\sources\common\ftmul.c
		___ftmul       		CODE           	0CD4	0000	226

C:\Program Files (x86)\Microchip\xc8\v1.45\sources\common\ftmul.c estimated size: 226

C:\Program Files (x86)\Microchip\xc8\v1.45\sources\common\llmod.c
		___llmod       		CODE           	1A06	0000	68

C:\Program Files (x86)\Microchip\xc8\v1.45\sources\common\llmod.c estimated size: 68

C:\Program Files (x86)\Microchip\xc8\v1.45\sources\common\atoi.c
		_atoi          		CODE           	15B8	0000	114

C:\Program Files (x86)\Microchip\xc8\v1.45\sources\common\atoi.c estimated size: 114

C:\Program Files (x86)\Microchip\xc8\v1.45\sources\common\strtok.c
		_strtok        		CODE           	13CC	0000	76

C:\Program Files (x86)\Microchip\xc8\v1.45\sources\common\strtok.c estimated size: 76

C:\Program Files (x86)\Microchip\xc8\v1.45\sources\common\stricmp.c
		_stricmp       		CODE           	1954	0000	53

C:\Program Files (x86)\Microchip\xc8\v1.45\sources\common\stricmp.c estimated size: 53

shared
		i1_returnReset 		CODE           	0002	0000	3
		i1_do_I2C_SEND_ADR_READ		CODE           	2326	0000	9
		i1_do_I2C_DO_NACK_STOP		CODE           	22BE	0000	5
		i1_mssp1_clearIRQ		CODE           	2284	0000	4
		i1_do_I2C_SEND_RESTART		CODE           	22B2	0000	5
		drv2665@drv_fifo_sine		STRCODE        	10F4	0000	245
		i1_do_I2C_TX_EMPTY		CODE           	1838	0000	43
		_dpowers       		STRCODE        	2800	0000	41
		i1_do_I2C_DO_NACK_RESTART		CODE           	22C2	0000	5
		i1_send_2bytes_latchless_IK		CODE           	27D7	0000	42
		i1_do_I2C_SEND_RESTART_READ		CODE           	22AA	0000	5
		i1_do_I2C_DO_ADDRESS_NACK		CODE           	26FC	0000	37
		i1_do_I2C_RX   		CODE           	1988	0000	64
		i1_do_I2C_TX   		CODE           	1C46	0000	79
		_drv_sine      		STRCODE        	0000	0000	0
		_LEDpower      		STRCODE        	2A6F	0000	3
		i1_i2c_ISR     		CODE           	2615	0000	33
		i1_i2c1_driver_sendNACK		CODE           	22A6	0000	5
		i1_do_I2C_IDLE 		CODE           	22E5	0000	6
		i1_do_I2C_RCEN 		CODE           	22F4	0000	7
		i1_i2c1_driver_isNACK		CODE           	240A	0000	13
		__initialization		CODE           	0052	0000	107
		i1_LEDsOn      		CODE           	2675	0000	34
		i1_mssp1_setIRQ		CODE           	2281	0000	4
		i1_i2c1_driver_restart		CODE           	2275	0000	4
		i1_i2c1_driver_stop		CODE           	2278	0000	4
		_TMR0_RANGE    		STRCODE        	2A66	0000	4
		i1_do_I2C_RESET		CODE           	2318	0000	8
		i1_i2c1_driver_startRX		CODE           	227B	0000	4
		i1_i2c1_driver_resetBus		CODE           	182A	0000	2
		i1_i2c1_driver_sendACK		CODE           	22A2	0000	5
		_TMR2_RANGE    		STRCODE        	2A63	0000	4
		i1_do_I2C_SEND_RESTART_WRITE		CODE           	22AE	0000	5
		_drv_address   		STRCODE        	2A77	0000	2
		drv2665@drv_sine		STRCODE        	11E8	0000	243
		i1_do_I2C_DO_ACK		CODE           	22BA	0000	5
		i1_do_I2C_SEND_ADR_WRITE		CODE           	231F	0000	8
		i1_i2c1_driver_getRXData		CODE           	227E	0000	4
		_drv_fifo_sine 		STRCODE        	0000	0000	0
		i1_send_2length_2bytes_IK		CODE           	24E7	0000	25
		i1_do_I2C_SEND_STOP		CODE           	22B6	0000	5
		i1_i2c1_driver_TXData		CODE           	22E0	0000	6
		sin@coeff_a    		STRCODE        	0000	0000	0
		sin@coeff_b    		STRCODE        	0000	0000	0
		i1_returnStop  		CODE           	2267	0000	3
		i1_send_last_2bytes_IK		CODE           	1B17	0000	74

shared estimated size: 1214

mcc_generated_files/mcc.c
		_WDT_Initialize		CODE           	22C6	0000	5
		_PMD_Initialize		CODE           	232E	0000	9
		_OSCILLATOR_Initialize		CODE           	23AC	0000	11
		_SYSTEM_Initialize		CODE           	24BD	0000	22

mcc_generated_files/mcc.c estimated size: 47

C:\Program Files (x86)\Microchip\xc8\v1.45\sources\common\fttol.c
		___fttol       		CODE           	08B1	0000	136

C:\Program Files (x86)\Microchip\xc8\v1.45\sources\common\fttol.c estimated size: 136

C:\Program Files (x86)\Microchip\xc8\v1.45\sources\common\awtoft.c
		___awtoft      		CODE           	26B7	0000	35

C:\Program Files (x86)\Microchip\xc8\v1.45\sources\common\awtoft.c estimated size: 35

mcc_generated_files/drivers/i2c_master.c
		_returnStop    		CODE           	22FA	0000	7
		_i2c_setBuffer 		CODE           	24D2	0000	22
		_i2c_busCollisionISR		CODE           	2272	0000	4
		_i2c_ISR       		CODE           	27B1	0000	39
		_i2c_setAddress		CODE           	236E	0000	9
		_i2c_masterOperation		CODE           	2720	0000	37
		_do_I2C_TX_EMPTY		CODE           	1862	0000	48
		_returnReset   		CODE           	2300	0000	7
		_do_I2C_SEND_RESTART_WRITE		CODE           	233E	0000	9
		_i2c_poller    		CODE           	23FF	0000	12
		_do_I2C_DO_NACK_RESTART		CODE           	2366	0000	9
		_do_I2C_SEND_RESTART_READ		CODE           	2336	0000	9
		_do_I2C_SEND_ADR_WRITE		CODE           	23E9	0000	12
		_do_I2C_SEND_STOP		CODE           	234E	0000	9
		_i2c_open      		CODE           	1B60	0000	77
		_do_I2C_SEND_ADR_READ		CODE           	2416	0000	13
		_do_I2C_DO_NACK_STOP		CODE           	235E	0000	9
		_do_I2C_SEND_RESTART		CODE           	2346	0000	9
		_do_I2C_RX     		CODE           	1A8C	0000	69
		_do_I2C_TX     		CODE           	1E33	0000	90
		_do_I2C_IDLE   		CODE           	2391	0000	10
		_do_I2C_RCEN   		CODE           	23B6	0000	11
		_do_I2C_DO_ADDRESS_NACK		CODE           	07D3	0000	44
		_do_I2C_RESET  		CODE           	23DE	0000	12
		_do_I2C_DO_ACK 		CODE           	2356	0000	9

mcc_generated_files/drivers/i2c_master.c estimated size: 586

C:\Program Files (x86)\Microchip\xc8\v1.45\sources\common\awdiv.c
		___awdiv       		CODE           	1CE4	0000	83

C:\Program Files (x86)\Microchip\xc8\v1.45\sources\common\awdiv.c estimated size: 83

C:\Program Files (x86)\Microchip\xc8\v1.45\sources\common\ftadd.c
		___ftadd       		CODE           	0DB5	0000	283

C:\Program Files (x86)\Microchip\xc8\v1.45\sources\common\ftadd.c estimated size: 283

mcc_generated_files/i2c1_driver.c
		_mssp1_waitForEvent		CODE           	23F4	0000	12
		_i2c1_driver_open		CODE           	23D4	0000	11
		_i2c1_driver_isNACK		CODE           	182B	0000	14
		_i2c1_driver_stop		CODE           	2293	0000	4
		_i2c1_driver_getRXData		CODE           	2299	0000	4
		_i2c1_driver_TXData		CODE           	2306	0000	7
		_i2c1_driver_setBusCollisionISR		CODE           	239A	0000	10
		_i2c1_driver_start		CODE           	228D	0000	4
		_i2c1_driver_sendACK		CODE           	22CA	0000	5
		_mssp1_setIRQ  		CODE           	229C	0000	4
		_i2c1_driver_sendNACK		CODE           	22CE	0000	5
		_i2c1_driver_restart		CODE           	2290	0000	4
		_i2c1_driver_resetBus		CODE           	0800	0000	2
		_i2c1_driver_clearBusCollision		CODE           	226F	0000	4
		_mssp1_clearIRQ		CODE           	229F	0000	4
		_i2c1_driver_startRX		CODE           	2296	0000	4
		_i2c1_driver_setI2cISR		CODE           	23A3	0000	10
		_mssp1_IRQisEnabled		CODE           	23C0	0000	11

mcc_generated_files/i2c1_driver.c estimated size: 119

C:\Program Files (x86)\Microchip\xc8\v1.45\sources\common\toupper.c
		_toupper       		CODE           	2463	0000	17

C:\Program Files (x86)\Microchip\xc8\v1.45\sources\common\toupper.c estimated size: 17

C:\Program Files (x86)\Microchip\xc8\v1.45\sources\common\lldiv.c
		___lldiv       		CODE           	1D88	0000	84

C:\Program Files (x86)\Microchip\xc8\v1.45\sources\common\lldiv.c estimated size: 84

mcc_generated_files/eusart.c
		_putch         		CODE           	230C	0000	7
		_EUSART_Read   		CODE           	2635	0000	33
		_EUSART_Write  		CODE           	278C	0000	38
		_EUSART_Transmit_ISR		CODE           	25BB	0000	31
		_EUSART_Initialize		CODE           	2517	0000	27
		_EUSART_Receive_ISR		CODE           	2566	0000	29

mcc_generated_files/eusart.c estimated size: 165

main.c
		_main_initialize		CODE           	0B1B	0000	220
		_getActive     		CODE           	1BAC	0000	78
		_zeroPosition  		CODE           	169C	0000	118
		_getPosition   		CODE           	19C7	0000	64
		_getMoveMask   		CODE           	1BF9	0000	78
		_doRelMove     		CODE           	0ECF	0000	306
		_setActive     		CODE           	1711	0000	119
		_setMoveMask   		CODE           	1629	0000	116
		_main          		CODE           	1549	0000	112
		_setHeaterPreTime		CODE           	1F42	0000	92
		_setLEDPwr     		CODE           	25F7	0000	31
		_commCheck     		CODE           	0A54	0000	200
		_setDrvGain    		CODE           	1A49	0000	68
		_doAbsMove     		CODE           	00C0	0000	689
		_setHeaterPostTime		CODE           	1D36	0000	83
		_doMove        		CODE           	0938	0000	138
		_startRelMove  		CODE           	254B	0000	28
		_calcHeaterPins		CODE           	1787	0000	122
		_setDrvPeak    		CODE           	2496	0000	20
		_startAbsMove  		CODE           	259E	0000	30
		_setDrvPiezoOnTime		CODE           	1EE7	0000	92
		_setHeaterToggle		CODE           	09C1	0000	148
		_getMotionStatus		CODE           	26D9	0000	36
		_setLEDBrightnessRange		CODE           	25D9	0000	31

main.c estimated size: 3019

cmd_parser.c
		_execCmd       		CODE           	0370	0000	415
		_parseCmd      		CODE           	050E	0000	404

cmd_parser.c estimated size: 819

C:\Program Files (x86)\Microchip\xc8\v1.45\sources\common\strchr.c
		_strchr        		CODE           	2531	0000	27

C:\Program Files (x86)\Microchip\xc8\v1.45\sources\common\strchr.c estimated size: 27

